(lp0
(S'37.778291'
p1
S'-122.291286'
p2
tp3
a(S'37.862152'
p4
S'-122.280757'
p5
tp6
a(S'37.779864'
p7
S'-122.170634'
p8
tp9
a(S'37.825730'
p10
S'-122.267383'
p11
tp12
a(S'37.844166'
p13
S'-122.252871'
p14
tp15
a(S'37.773119'
p16
S'-122.203073'
p17
tp18
a(S'37.866424'
p19
S'-122.221285'
p20
tp21
a(S'37.848887'
p22
S'-122.232098'
p23
tp24
a(S'37.776492'
p25
S'-122.223561'
p26
tp27
a(S'37.790207'
p28
S'-122.200228'
p29
tp30
a(S'37.824606'
p31
S'-122.205065'
p32
tp33
a(S'37.788633'
p34
S'-122.197382'
p35
tp36
a(S'37.806844'
p37
S'-122.226122'
p38
tp39
a(S'37.869347'
p40
S'-122.250594'
p41
tp42
a(S'37.843491'
p43
S'-122.221000'
p44
tp45
a(S'37.803022'
p46
S'-122.278481'
p47
tp48
a(S'37.782562'
p49
S'-122.236651'
p50
tp51
a(S'37.767948'
p52
S'-122.201651'
p53
tp54
a(S'37.827528'
p55
S'-122.187423'
p56
tp57
a(S'37.723882'
p58
S'-122.201081'
p59
tp60
a(S'37.781213'
p61
S'-122.200228'
p62
tp63
a(S'37.861927'
p64
S'-122.281042'
p65
tp66
a(S'37.809542'
p67
S'-122.219293'
p68
tp69
a(S'37.724331'
p70
S'-122.221569'
p71
tp72
a(S'37.720059'
p73
S'-122.177748'
p74
tp75
a(S'37.818310'
p76
S'-122.203927'
p77
tp78
a(S'37.810666'
p79
S'-122.232383'
p80
tp81
a(S'37.828428'
p82
S'-122.260269'
p83
tp84
a(S'37.798975'
p85
S'-122.226122'
p86
tp87
a(S'37.856082'
p88
S'-122.292424'
p89
tp90
a(S'37.863276'
p91
S'-122.262830'
p92
tp93
a(S'37.772220'
p94
S'-122.207342'
p95
tp96
a(S'37.731526'
p97
S'-122.188276'
p98
tp99
a(S'37.794703'
p100
S'-122.193683'
p101
tp102
a(S'37.824381'
p103
S'-122.188276'
p104
tp105
a(S'37.803921'
p106
S'-122.203358'
p107
tp108
a(S'37.811116'
p109
S'-122.250025'
p110
tp111
a(S'37.719385'
p112
S'-122.172626'
p113
tp114
a(S'37.773569'
p115
S'-122.194537'
p116
tp117
a(S'37.822807'
p118
S'-122.247180'
p119
tp120
a(S'37.850461'
p121
S'-122.266814'
p122
tp123
a(S'37.800324'
p124
S'-122.215878'
p125
tp126
a(S'37.778740'
p127
S'-122.213886'
p128
tp129
a(S'37.799425'
p130
S'-122.269375'
p131
tp132
a(S'37.779864'
p133
S'-122.280757'
p134
tp135
a(S'37.832475'
p136
S'-122.253724'
p137
tp138
a(S'37.836971'
p139
S'-122.254863'
p140
tp141
a(S'37.795602'
p142
S'-122.210472'
p143
tp144
a(S'37.771770'
p145
S'-122.188561'
p146
tp147
a(S'37.781888'
p148
S'-122.289863'
p149
tp150
a(S'37.775368'
p151
S'-122.283034'
p152
tp153
a(S'37.754683'
p154
S'-122.186569'
p155
tp156
a(S'37.866199'
p157
S'-122.286733'
p158
tp159
a(S'37.830002'
p160
S'-122.276204'
p161
tp162
a(S'37.798076'
p163
S'-122.200797'
p164
tp165
a(S'37.861478'
p166
S'-122.258277'
p167
tp168
a(S'37.801673'
p169
S'-122.219008'
p170
tp171
a(S'37.826179'
p172
S'-122.281326'
p173
tp174
a(S'37.721184'
p175
S'-122.175187'
p176
tp177
a(S'37.834273'
p178
S'-122.259131'
p179
tp180
a(S'37.863501'
p181
S'-122.270229'
p182
tp183
a(S'37.860803'
p184
S'-122.250310'
p185
tp186
a(S'37.832250'
p187
S'-122.280473'
p188
tp189
a(S'37.820334'
p190
S'-122.261407'
p191
tp192
a(S'37.770646'
p193
S'-122.202504'
p194
tp195
a(S'37.875642'
p196
S'-122.269944'
p197
tp198
a(S'37.795602'
p199
S'-122.264253'
p200
tp201
a(S'37.815612'
p202
S'-122.209618'
p203
tp204
a(S'37.761428'
p205
S'-122.203358'
p206
tp207
a(S'37.798525'
p208
S'-122.191122'
p209
tp210
a(S'37.835173'
p211
S'-122.198805'
p212
tp213
a(S'37.846189'
p214
S'-122.283034'
p215
tp216
a(S'37.723432'
p217
S'-122.190837'
p218
tp219
a(S'37.848662'
p220
S'-122.232383'
p221
tp222
a(S'37.860803'
p223
S'-122.266814'
p224
tp225
a(S'37.867998'
p226
S'-122.288156'
p227
tp228
a(S'37.777616'
p229
S'-122.203358'
p230
tp231
a(S'37.803921'
p232
S'-122.209903'
p233
tp234
a(S'37.783462'
p235
S'-122.278196'
p236
tp237
a(S'37.842367'
p238
S'-122.290148'
p239
tp240
a(S'37.805720'
p241
S'-122.217870'
p242
tp243
a(S'37.815388'
p244
S'-122.246895'
p245
tp246
a(S'37.868223'
p247
S'-122.287302'
p248
tp249
a(S'37.825055'
p250
S'-122.283887'
p251
tp252
a(S'37.762103'
p253
S'-122.203642'
p254
tp255
a(S'37.823032'
p256
S'-122.269090'
p257
tp258
a(S'37.824606'
p259
S'-122.206488'
p260
tp261
a(S'37.798975'
p262
S'-122.283318'
p263
tp264
a(S'37.825505'
p265
S'-122.259415'
p266
tp267
a(S'37.848662'
p268
S'-122.225553'
p269
tp270
a(S'37.794703'
p271
S'-122.162382'
p272
tp273
a(S'37.830451'
p274
S'-122.208195'
p275
tp276
a(S'37.794254'
p277
S'-122.182585'
p278
tp279
a(S'37.849787'
p280
S'-122.285595'
p281
tp282
a(S'37.854058'
p283
S'-122.233236'
p284
tp285
a(S'37.832025'
p286
S'-122.271651'
p287
tp288
a(S'37.850236'
p289
S'-122.267383'
p290
tp291
a(S'37.844616'
p292
S'-122.264537'
p293
tp294
a(S'37.846414'
p295
S'-122.277343'
p296
tp297
a(S'37.724781'
p298
S'-122.182585'
p299
tp300
a(S'37.838770'
p301
S'-122.258562'
p302
tp303
a(S'37.838770'
p304
S'-122.287871'
p305
tp306
a(S'37.752210'
p307
S'-122.176325'
p308
tp309
a(S'37.843267'
p310
S'-122.217870'
p311
tp312
a(S'37.859454'
p313
S'-122.260554'
p314
tp315
a(S'37.781888'
p316
S'-122.291286'
p317
tp318
a(S'37.742543'
p319
S'-122.202220'
p320
tp321
a(S'37.858555'
p322
S'-122.269375'
p323
tp324
a(S'37.846414'
p325
S'-122.246041'
p326
tp327
a(S'37.867998'
p328
S'-122.219578'
p329
tp330
a(S'37.767274'
p331
S'-122.180593'
p332
tp333
a(S'37.764126'
p334
S'-122.160674'
p335
tp336
a(S'37.801448'
p337
S'-122.175187'
p338
tp339
a(S'37.772445'
p340
S'-122.184008'
p341
tp342
a(S'37.812914'
p343
S'-122.263968'
p344
tp345
a(S'37.796951'
p346
S'-122.213602'
p347
tp348
a(S'37.800324'
p349
S'-122.190268'
p350
tp351
a(S'37.779640'
p352
S'-122.190837'
p353
tp354
a(S'37.806844'
p355
S'-122.213317'
p356
tp357
a(S'37.774019'
p358
S'-122.158682'
p359
tp360
a(S'37.785485'
p361
S'-122.207057'
p362
tp363
a(S'37.818985'
p364
S'-122.238643'
p365
tp366
a(S'37.831351'
p367
S'-122.207057'
p368
tp369
a(S'37.809542'
p370
S'-122.239497'
p371
tp372
a(S'37.846189'
p373
S'-122.284741'
p374
tp375
a(S'37.720734'
p376
S'-122.192545'
p377
tp378
a(S'37.848887'
p379
S'-122.242911'
p380
tp381
a(S'37.858330'
p382
S'-122.254293'
p383
tp384
a(S'37.851136'
p385
S'-122.232667'
p386
tp387
a(S'37.864401'
p388
S'-122.271651'
p389
tp390
a(S'37.800998'
p391
S'-122.225838'
p392
tp393
a(S'37.813139'
p394
S'-122.274782'
p395
tp396
a(S'37.809767'
p397
S'-122.274497'
p398
tp399
a(S'37.848213'
p400
S'-122.249456'
p401
tp402
a(S'37.846639'
p403
S'-122.279904'
p404
tp405
a(S'37.860129'
p406
S'-122.280473'
p407
tp408
a(S'37.798300'
p409
S'-122.267668'
p410
tp411
a(S'37.762103'
p412
S'-122.198520'
p413
tp414
a(S'37.844391'
p415
S'-122.292709'
p416
tp417
a(S'37.838320'
p418
S'-122.195390'
p419
tp420
a(S'37.852035'
p421
S'-122.271936'
p422
tp423
a(S'37.728603'
p424
S'-122.186854'
p425
tp426
a(S'37.783237'
p427
S'-122.224415'
p428
tp429
a(S'37.826854'
p430
S'-122.277627'
p431
tp432
a(S'37.832025'
p433
S'-122.208195'
p434
tp435
a(S'37.846414'
p436
S'-122.208480'
p437
tp438
a(S'37.818086'
p439
S'-122.181732'
p440
tp441
a(S'37.771546'
p442
S'-122.195959'
p443
tp444
a(S'37.834723'
p445
S'-122.213033'
p446
tp447
a(S'37.796052'
p448
S'-122.180593'
p449
tp450
a(S'37.731975'
p451
S'-122.184293'
p452
tp453
a(S'37.792230'
p454
S'-122.223846'
p455
tp456
a(S'37.834723'
p457
S'-122.262830'
p458
tp459
a(S'37.808418'
p460
S'-122.268521'
p461
tp462
a(S'37.801223'
p463
S'-122.219008'
p464
tp465
a(S'37.819659'
p466
S'-122.279904'
p467
tp468
a(S'37.777616'
p469
S'-122.234944'
p470
tp471
a(S'37.868672'
p472
S'-122.240350'
p473
tp474
a(S'37.845290'
p475
S'-122.233805'
p476
tp477
a(S'37.812690'
p478
S'-122.227830'
p479
tp480
a(S'37.836297'
p481
S'-122.194821'
p482
tp483
a(S'37.829327'
p484
S'-122.279619'
p485
tp486
a(S'37.814263'
p487
S'-122.257993'
p488
tp489
a(S'37.835173'
p490
S'-122.219008'
p491
tp492
a(S'37.780764'
p493
S'-122.289009'
p494
tp495
a(S'37.806394'
p496
S'-122.271936'
p497
tp498
a(S'37.818310'
p499
S'-122.270229'
p500
tp501
a(S'37.854058'
p502
S'-122.225553'
p503
tp504
a(S'37.834048'
p505
S'-122.218155'
p506
tp507
a(S'37.788858'
p508
S'-122.212464'
p509
tp510
a(S'37.715563'
p511
S'-122.215025'
p512
tp513
a(S'37.783237'
p514
S'-122.202789'
p515
tp516
a(S'37.780314'
p517
S'-122.187992'
p518
tp519
a(S'37.791106'
p520
S'-122.215878'
p521
tp522
a(S'37.862152'
p523
S'-122.281042'
p524
tp525
a(S'37.855183'
p526
S'-122.220431'
p527
tp528
a(S'37.776042'
p529
S'-122.190837'
p530
tp531
a(S'37.858555'
p532
S'-122.232383'
p533
tp534
a(S'37.845065'
p535
S'-122.213886'
p536
tp537
a(S'37.812914'
p538
S'-122.226976'
p539
tp540
a(S'37.722308'
p541
S'-122.176894'
p542
tp543
a(S'37.755583'
p544
S'-122.175187'
p545
tp546
a(S'37.812914'
p547
S'-122.278765'
p548
tp549
a(S'37.747714'
p550
S'-122.187992'
p551
tp552
a(S'37.803022'
p553
S'-122.243480'
p554
tp555
a(S'37.808193'
p556
S'-122.239212'
p557
tp558
a(S'37.811565'
p559
S'-122.215878'
p560
tp561
a(S'37.794928'
p562
S'-122.180878'
p563
tp564
a(S'37.827753'
p565
S'-122.267098'
p566
tp567
a(S'37.715338'
p568
S'-122.190268'
p569
tp570
a(S'37.836746'
p571
S'-122.293562'
p572
tp573
a(S'37.801673'
p574
S'-122.281895'
p575
tp576
a(S'37.846414'
p577
S'-122.266814'
p578
tp579
a(S'37.804146'
p580
S'-122.167788'
p581
tp582
a(S'37.753784'
p583
S'-122.209334'
p584
tp585
a(S'37.771546'
p586
S'-122.279619'
p587
tp588
a(S'37.810441'
p589
S'-122.264253'
p590
tp591
a(S'37.858330'
p592
S'-122.243765'
p593
tp594
a(S'37.837871'
p595
S'-122.219008'
p596
tp597
a(S'37.875642'
p598
S'-122.268806'
p599
tp600
a(S'37.839894'
p601
S'-122.201651'
p602
tp603
a(S'37.843267'
p604
S'-122.254578'
p605
tp606
a(S'37.866649'
p607
S'-122.253155'
p608
tp609
a(S'37.789757'
p610
S'-122.206488'
p611
tp612
a(S'37.851136'
p613
S'-122.266814'
p614
tp615
a(S'37.824606'
p616
S'-122.204781'
p617
tp618
a(S'37.803022'
p619
S'-122.176894'
p620
tp621
a(S'37.809992'
p622
S'-122.190268'
p623
tp624
a(S'37.852709'
p625
S'-122.246041'
p626
tp627
a(S'37.777616'
p628
S'-122.210187'
p629
tp630
a(S'37.858330'
p631
S'-122.253155'
p632
tp633
a(S'37.754908'
p634
S'-122.196528'
p635
tp636
a(S'37.757156'
p637
S'-122.188276'
p638
tp639
a(S'37.837871'
p640
S'-122.187992'
p641
tp642
a(S'37.761203'
p643
S'-122.171488'
p644
tp645
a(S'37.820783'
p646
S'-122.270798'
p647
tp648
a(S'37.789982'
p649
S'-122.230391'
p650
tp651
a(S'37.827079'
p652
S'-122.298115'
p653
tp654
a(S'37.845065'
p655
S'-122.289009'
p656
tp657
a(S'37.803921'
p658
S'-122.263968'
p659
tp660
a(S'37.807519'
p661
S'-122.255716'
p662
tp663
a(S'37.844391'
p664
S'-122.293278'
p665
tp666
a(S'37.777166'
p667
S'-122.164658'
p668
tp669
a(S'37.745016'
p670
S'-122.191122'
p671
tp672
a(S'37.784586'
p673
S'-122.232383'
p674
tp675
a(S'37.798975'
p676
S'-122.275351'
p677
tp678
a(S'37.849787'
p679
S'-122.239497'
p680
tp681
a(S'37.820109'
p682
S'-122.281895'
p683
tp684
a(S'37.849337'
p685
S'-122.281895'
p686
tp687
a(S'37.864401'
p688
S'-122.232667'
p689
tp690
a(S'37.806844'
p691
S'-122.268237'
p692
tp693
a(S'37.814938'
p694
S'-122.237789'
p695
tp696
a(S'37.781888'
p697
S'-122.173195'
p698
tp699
a(S'37.826629'
p700
S'-122.265107'
p701
tp702
a(S'37.760979'
p703
S'-122.159821'
p704
tp705
a(S'37.822357'
p706
S'-122.212748'
p707
tp708
a(S'37.809767'
p709
S'-122.230391'
p710
tp711
a(S'37.860129'
p712
S'-122.271651'
p713
tp714
a(S'37.778291'
p715
S'-122.201081'
p716
tp717
a(S'37.869122'
p718
S'-122.255147'
p719
tp720
a(S'37.851360'
p721
S'-122.272221'
p722
tp723
a(S'37.787284'
p724
S'-122.193114'
p725
tp726
a(S'37.775817'
p727
S'-122.224130'
p728
tp729
a(S'37.750187'
p730
S'-122.186284'
p731
tp732
a(S'37.821908'
p733
S'-122.254293'
p734
tp735
a(S'37.866874'
p736
S'-122.285879'
p737
tp738
a(S'37.813814'
p739
S'-122.273928'
p740
tp741
a(S'37.774468'
p742
S'-122.187992'
p743
tp744
a(S'37.803696'
p745
S'-122.214456'
p746
tp747
a(S'37.817411'
p748
S'-122.254009'
p749
tp750
a(S'37.777166'
p751
S'-122.286448'
p752
tp753
a(S'37.876766'
p754
S'-122.277058'
p755
tp756
a(S'37.786834'
p757
S'-122.201935'
p758
tp759
a(S'37.801673'
p760
S'-122.178601'
p761
tp762
a(S'37.851136'
p763
S'-122.283318'
p764
tp765
a(S'37.805495'
p766
S'-122.239212'
p767
tp768
a(S'37.839220'
p769
S'-122.193683'
p770
tp771
a(S'37.843267'
p772
S'-122.226122'
p773
tp774
a(S'37.833599'
p775
S'-122.294985'
p776
tp777
a(S'37.845290'
p778
S'-122.243480'
p779
tp780
a(S'37.827304'
p781
S'-122.292709'
p782
tp783
a(S'37.830676'
p784
S'-122.215309'
p785
tp786
a(S'37.841918'
p787
S'-122.213602'
p788
tp789
a(S'37.722083'
p790
S'-122.179455'
p791
tp792
a(S'37.816512'
p793
S'-122.196813'
p794
tp795
a(S'37.860803'
p796
S'-122.277343'
p797
tp798
a(S'37.859005'
p799
S'-122.277343'
p800
tp801
a(S'37.821458'
p802
S'-122.207342'
p803
tp804
a(S'37.772670'
p805
S'-122.207626'
p806
tp807
a(S'37.806394'
p808
S'-122.210187'
p809
tp810
a(S'37.808193'
p811
S'-122.220716'
p812
tp813
a(S'37.827079'
p814
S'-122.211325'
p815
tp816
a(S'37.830901'
p817
S'-122.219578'
p818
tp819
a(S'37.858780'
p820
S'-122.273074'
p821
tp822
a(S'37.815612'
p823
S'-122.238074'
p824
tp825
a(S'37.800099'
p826
S'-122.177748'
p827
tp828
a(S'37.866424'
p829
S'-122.292424'
p830
tp831
a(S'37.780314'
p832
S'-122.210187'
p833
tp834
a(S'37.803472'
p835
S'-122.194252'
p836
tp837
a(S'37.792005'
p838
S'-122.187423'
p839
tp840
a(S'37.809992'
p841
S'-122.248033'
p842
tp843
a(S'37.790881'
p844
S'-122.184008'
p845
tp846
a(S'37.810216'
p847
S'-122.216447'
p848
tp849
a(S'37.817636'
p850
S'-122.248033'
p851
tp852
a(S'37.748838'
p853
S'-122.164943'
p854
tp855
a(S'37.829552'
p856
S'-122.264253'
p857
tp858
a(S'37.837871'
p859
S'-122.217017'
p860
tp861
a(S'37.714664'
p862
S'-122.213602'
p863
tp864
a(S'37.824156'
p865
S'-122.267668'
p866
tp867
a(S'37.836971'
p868
S'-122.187707'
p869
tp870
a(S'37.857206'
p871
S'-122.259700'
p872
tp873
a(S'37.816961'
p874
S'-122.240635'
p875
tp876
a(S'37.794928'
p877
S'-122.207342'
p878
tp879
a(S'37.795827'
p880
S'-122.176325'
p881
tp882
a(S'37.848887'
p883
S'-122.204212'
p884
tp885
a(S'37.809542'
p886
S'-122.191406'
p887
tp888
a(S'37.842367'
p889
S'-122.222992'
p890
tp891
a(S'37.746589'
p892
S'-122.196244'
p893
tp894
a(S'37.866199'
p895
S'-122.256854'
p896
tp897
a(S'37.785035'
p898
S'-122.278481'
p899
tp900
a(S'37.767724'
p901
S'-122.219578'
p902
tp903
a(S'37.825955'
p904
S'-122.289863'
p905
tp906
a(S'37.783911'
p907
S'-122.233236'
p908
tp909
a(S'37.857206'
p910
S'-122.247464'
p911
tp912
a(S'37.851810'
p913
S'-122.262546'
p914
tp915
a(S'37.740519'
p916
S'-122.192260'
p917
tp918
a(S'37.826629'
p919
S'-122.266245'
p920
tp921
a(S'37.749737'
p922
S'-122.203358'
p923
tp924
a(S'37.802572'
p925
S'-122.278196'
p926
tp927
a(S'37.818086'
p928
S'-122.200228'
p929
tp930
a(S'37.853609'
p931
S'-122.254578'
p932
tp933
a(S'37.803921'
p934
S'-122.232952'
p935
tp936
a(S'37.770197'
p937
S'-122.224700'
p938
tp939
a(S'37.805495'
p940
S'-122.202504'
p941
tp942
a(S'37.783237'
p943
S'-122.231244'
p944
tp945
a(S'37.843491'
p946
S'-122.282465'
p947
tp948
a(S'37.847089'
p949
S'-122.286164'
p950
tp951
a(S'37.720284'
p952
S'-122.207626'
p953
tp954
a(S'37.769297'
p955
S'-122.173195'
p956
tp957
a(S'37.785935'
p958
S'-122.163520'
p959
tp960
a(S'37.751086'
p961
S'-122.173479'
p962
tp963
a(S'37.757156'
p964
S'-122.176610'
p965
tp966
a(S'37.849112'
p967
S'-122.257139'
p968
tp969
a(S'37.783012'
p970
S'-122.220431'
p971
tp972
a(S'37.837871'
p973
S'-122.296692'
p974
tp975
a(S'37.779640'
p976
S'-122.294131'
p977
tp978
a(S'37.801673'
p979
S'-122.175471'
p980
tp981
a(S'37.784811'
p982
S'-122.220147'
p983
tp984
a(S'37.804596'
p985
S'-122.233805'
p986
tp987
a(S'37.803921'
p988
S'-122.209049'
p989
tp990
a(S'37.779190'
p991
S'-122.280188'
p992
tp993
a(S'37.784361'
p994
S'-122.190553'
p995
tp996
a(S'37.780314'
p997
S'-122.290717'
p998
tp999
a(S'37.762777'
p1000
S'-122.204212'
p1001
tp1002
a(S'37.861253'
p1003
S'-122.274212'
p1004
tp1005
a(S'37.725680'
p1006
S'-122.183439'
p1007
tp1008
a(S'37.780989'
p1009
S'-122.221569'
p1010
tp1011
a(S'37.857656'
p1012
S'-122.282749'
p1013
tp1014
a(S'37.867099'
p1015
S'-122.264822'
p1016
tp1017
a(S'37.782562'
p1018
S'-122.174049'
p1019
tp1020
a(S'37.825505'
p1021
S'-122.267098'
p1022
tp1023
a(S'37.809317'
p1024
S'-122.250879'
p1025
tp1026
a(S'37.842142'
p1027
S'-122.224984'
p1028
tp1029
a(S'37.827079'
p1030
S'-122.208195'
p1031
tp1032
a(S'37.856307'
p1033
S'-122.240635'
p1034
tp1035
a(S'37.754459'
p1036
S'-122.181162'
p1037
tp1038
a(S'37.738271'
p1039
S'-122.199659'
p1040
tp1041
a(S'37.796951'
p1042
S'-122.172910'
p1043
tp1044
a(S'37.813814'
p1045
S'-122.245757'
p1046
tp1047
a(S'37.804596'
p1048
S'-122.183439'
p1049
tp1050
a(S'37.866424'
p1051
S'-122.230960'
p1052
tp1053
a(S'37.863276'
p1054
S'-122.235228'
p1055
tp1056
a(S'37.863052'
p1057
S'-122.260269'
p1058
tp1059
a(S'37.828653'
p1060
S'-122.256001'
p1061
tp1062
a(S'37.827079'
p1063
S'-122.206488'
p1064
tp1065
a(S'37.817861'
p1066
S'-122.269375'
p1067
tp1068
a(S'37.786834'
p1069
S'-122.191976'
p1070
tp1071
a(S'37.843267'
p1072
S'-122.211610'
p1073
tp1074
a(S'37.836746'
p1075
S'-122.222423'
p1076
tp1077
a(S'37.840344'
p1078
S'-122.217586'
p1079
tp1080
a(S'37.859454'
p1081
S'-122.275920'
p1082
tp1083
a(S'37.856082'
p1084
S'-122.286733'
p1085
tp1086
a(S'37.779190'
p1087
S'-122.163805'
p1088
tp1089
a(S'37.842142'
p1090
S'-122.214456'
p1091
tp1092
a(S'37.834498'
p1093
S'-122.292993'
p1094
tp1095
a(S'37.782113'
p1096
S'-122.188845'
p1097
tp1098
a(S'37.801448'
p1099
S'-122.219008'
p1100
tp1101
a(S'37.831800'
p1102
S'-122.271651'
p1103
tp1104
a(S'37.830451'
p1105
S'-122.210187'
p1106
tp1107
a(S'37.772895'
p1108
S'-122.220147'
p1109
tp1110
a(S'37.798975'
p1111
S'-122.185715'
p1112
tp1113
a(S'37.836746'
p1114
S'-122.295839'
p1115
tp1116
a(S'37.779415'
p1117
S'-122.222423'
p1118
tp1119
a(S'37.811341'
p1120
S'-122.228968'
p1121
tp1122
a(S'37.786160'
p1123
S'-122.166650'
p1124
tp1125
a(S'37.851810'
p1126
S'-122.276204'
p1127
tp1128
a(S'37.794703'
p1129
S'-122.215594'
p1130
tp1131
a(S'37.872944'
p1132
S'-122.278765'
p1133
tp1134
a(S'37.820334'
p1135
S'-122.249456'
p1136
tp1137
a(S'37.832475'
p1138
S'-122.262261'
p1139
tp1140
a(S'37.767049'
p1141
S'-122.166366'
p1142
tp1143
a(S'37.729727'
p1144
S'-122.199943'
p1145
tp1146
a(S'37.822357'
p1147
S'-122.259700'
p1148
tp1149
a(S'37.830002'
p1150
S'-122.286733'
p1151
tp1152
a(S'37.775593'
p1153
S'-122.196528'
p1154
tp1155
a(S'37.860803'
p1156
S'-122.250594'
p1157
tp1158
a(S'37.800099'
p1159
S'-122.198520'
p1160
tp1161
a(S'37.757156'
p1162
S'-122.210472'
p1163
tp1164
a(S'37.879239'
p1165
S'-122.276489'
p1166
tp1167
a(S'37.762103'
p1168
S'-122.158113'
p1169
tp1170
a(S'37.735798'
p1171
S'-122.201651'
p1172
tp1173
a(S'37.800549'
p1174
S'-122.222992'
p1175
tp1176
a(S'37.768848'
p1177
S'-122.185715'
p1178
tp1179
a(S'37.812015'
p1180
S'-122.209618'
p1181
tp1182
a(S'37.826854'
p1183
S'-122.207911'
p1184
tp1185
a(S'37.801898'
p1186
S'-122.271082'
p1187
tp1188
a(S'37.827304'
p1189
S'-122.275351'
p1190
tp1191
a(S'37.776492'
p1192
S'-122.287587'
p1193
tp1194
a(S'37.826629'
p1195
S'-122.267952'
p1196
tp1197
a(S'37.841693'
p1198
S'-122.197951'
p1199
tp1200
a(S'37.733549'
p1201
S'-122.205634'
p1202
tp1203
a(S'37.741194'
p1204
S'-122.192260'
p1205
tp1206
a(S'37.821008'
p1207
S'-122.199374'
p1208
tp1209
a(S'37.817411'
p1210
S'-122.228968'
p1211
tp1212
a(S'37.878565'
p1213
S'-122.268521'
p1214
tp1215
a(S'37.790207'
p1216
S'-122.193398'
p1217
tp1218
a(S'37.784811'
p1219
S'-122.226407'
p1220
tp1221
a(S'37.756257'
p1222
S'-122.188845'
p1223
tp1224
a(S'37.824606'
p1225
S'-122.289009'
p1226
tp1227
a(S'37.849337'
p1228
S'-122.244619'
p1229
tp1230
a(S'37.757606'
p1231
S'-122.211610'
p1232
tp1233
a(S'37.762103'
p1234
S'-122.190837'
p1235
tp1236
a(S'37.835173'
p1237
S'-122.220147'
p1238
tp1239
a(S'37.815163'
p1240
S'-122.254293'
p1241
tp1242
a(S'37.857431'
p1243
S'-122.233236'
p1244
tp1245
a(S'37.826854'
p1246
S'-122.278481'
p1247
tp1248
a(S'37.763452'
p1249
S'-122.203073'
p1250
tp1251
a(S'37.779190'
p1252
S'-122.179740'
p1253
tp1254
a(S'37.807743'
p1255
S'-122.275635'
p1256
tp1257
a(S'37.815837'
p1258
S'-122.239212'
p1259
tp1260
a(S'37.791556'
p1261
S'-122.215025'
p1262
tp1263
a(S'37.718036'
p1264
S'-122.205919'
p1265
tp1266
a(S'37.839444'
p1267
S'-122.272790'
p1268
tp1269
a(S'37.860803'
p1270
S'-122.222139'
p1271
tp1272
a(S'37.837871'
p1273
S'-122.205065'
p1274
tp1275
a(S'37.776042'
p1276
S'-122.179171'
p1277
tp1278
a(S'37.862602'
p1279
S'-122.279050'
p1280
tp1281
a(S'37.743667'
p1282
S'-122.188845'
p1283
tp1284
a(S'37.782787'
p1285
S'-122.197951'
p1286
tp1287
a(S'37.808418'
p1288
S'-122.241773'
p1289
tp1290
a(S'37.781438'
p1291
S'-122.171772'
p1292
tp1293
a(S'37.773569'
p1294
S'-122.200512'
p1295
tp1296
a(S'37.803022'
p1297
S'-122.276773'
p1298
tp1299
a(S'37.862602'
p1300
S'-122.248887'
p1301
tp1302
a(S'37.838995'
p1303
S'-122.203358'
p1304
tp1305
a(S'37.810891'
p1306
S'-122.250879'
p1307
tp1308
a(S'37.785260'
p1309
S'-122.214171'
p1310
tp1311
a(S'37.790207'
p1312
S'-122.185715'
p1313
tp1314
a(S'37.831575'
p1315
S'-122.215878'
p1316
tp1317
a(S'37.847313'
p1318
S'-122.244619'
p1319
tp1320
a(S'37.790656'
p1321
S'-122.275066'
p1322
tp1323
a(S'37.840569'
p1324
S'-122.262546'
p1325
tp1326
a(S'37.768173'
p1327
S'-122.191691'
p1328
tp1329
a(S'37.798750'
p1330
S'-122.188845'
p1331
tp1332
a(S'37.780314'
p1333
S'-122.190268'
p1334
tp1335
a(S'37.781888'
p1336
S'-122.215309'
p1337
tp1338
a(S'37.830901'
p1339
S'-122.201366'
p1340
tp1341
a(S'37.805045'
p1342
S'-122.233805'
p1343
tp1344
a(S'37.790431'
p1345
S'-122.215594'
p1346
tp1347
a(S'37.878790'
p1348
S'-122.277343'
p1349
tp1350
a(S'37.821233'
p1351
S'-122.188276'
p1352
tp1353
a(S'37.757156'
p1354
S'-122.167504'
p1355
tp1356
a(S'37.797401'
p1357
S'-122.201651'
p1358
tp1359
a(S'37.769522'
p1360
S'-122.180024'
p1361
tp1362
a(S'37.833824'
p1363
S'-122.201651'
p1364
tp1365
a(S'37.826404'
p1366
S'-122.270513'
p1367
tp1368
a(S'37.773569'
p1369
S'-122.288156'
p1370
tp1371
a(S'37.744791'
p1372
S'-122.189984'
p1373
tp1374
a(S'37.758056'
p1375
S'-122.184293'
p1376
tp1377
a(S'37.847538'
p1378
S'-122.241488'
p1379
tp1380
a(S'37.772220'
p1381
S'-122.168927'
p1382
tp1383
a(S'37.856082'
p1384
S'-122.241488'
p1385
tp1386
a(S'37.736922'
p1387
S'-122.192829'
p1388
tp1389
a(S'37.831351'
p1390
S'-122.277912'
p1391
tp1392
a(S'37.774918'
p1393
S'-122.221000'
p1394
tp1395
a(S'37.807069'
p1396
S'-122.238643'
p1397
tp1398
a(S'37.779864'
p1399
S'-122.179455'
p1400
tp1401
a(S'37.789532'
p1402
S'-122.276773'
p1403
tp1404
a(S'37.772895'
p1405
S'-122.194537'
p1406
tp1407
a(S'37.873619'
p1408
S'-122.262546'
p1409
tp1410
a(S'37.780539'
p1411
S'-122.290717'
p1412
tp1413
a(S'37.808418'
p1414
S'-122.269944'
p1415
tp1416
a(S'37.808418'
p1417
S'-122.279619'
p1418
tp1419
a(S'37.771995'
p1420
S'-122.214171'
p1421
tp1422
a(S'37.828203'
p1423
S'-122.207057'
p1424
tp1425
a(S'37.730402'
p1426
S'-122.208764'
p1427
tp1428
a(S'37.733100'
p1429
S'-122.199374'
p1430
tp1431
a(S'37.778515'
p1432
S'-122.168642'
p1433
tp1434
a(S'37.849562'
p1435
S'-122.240350'
p1436
tp1437
a(S'37.799200'
p1438
S'-122.286448'
p1439
tp1440
a(S'37.820559'
p1441
S'-122.281042'
p1442
tp1443
a(S'37.811790'
p1444
S'-122.229822'
p1445
tp1446
a(S'37.807294'
p1447
S'-122.226407'
p1448
tp1449
a(S'37.781663'
p1450
S'-122.282465'
p1451
tp1452
a(S'37.752885'
p1453
S'-122.186000'
p1454
tp1455
a(S'37.843716'
p1456
S'-122.250594'
p1457
tp1458
a(S'37.804821'
p1459
S'-122.234090'
p1460
tp1461
a(S'37.777391'
p1462
S'-122.291001'
p1463
tp1464
a(S'37.786160'
p1465
S'-122.180878'
p1466
tp1467
a(S'37.855632'
p1468
S'-122.289009'
p1469
tp1470
a(S'37.780539'
p1471
S'-122.291855'
p1472
tp1473
a(S'37.816287'
p1474
S'-122.216447'
p1475
tp1476
a(S'37.766375'
p1477
S'-122.157829'
p1478
tp1479
a(S'37.836746'
p1480
S'-122.293278'
p1481
tp1482
a(S'37.816961'
p1483
S'-122.248602'
p1484
tp1485
a(S'37.801898'
p1486
S'-122.187992'
p1487
tp1488
a(S'37.738945'
p1489
S'-122.196528'
p1490
tp1491
a(S'37.850461'
p1492
S'-122.264253'
p1493
tp1494
a(S'37.774019'
p1495
S'-122.212464'
p1496
tp1497
a(S'37.806394'
p1498
S'-122.269090'
p1499
tp1500
a(S'37.809317'
p1501
S'-122.248887'
p1502
tp1503
a(S'37.777841'
p1504
S'-122.201935'
p1505
tp1506
a(S'37.854958'
p1507
S'-122.286733'
p1508
tp1509
a(S'37.792005'
p1510
S'-122.212748'
p1511
tp1512
a(S'37.841468'
p1513
S'-122.269375'
p1514
tp1515
a(S'37.818760'
p1516
S'-122.233805'
p1517
tp1518
a(S'37.783686'
p1519
S'-122.201935'
p1520
tp1521
a(S'37.744116'
p1522
S'-122.189130'
p1523
tp1524
a(S'37.832924'
p1525
S'-122.250879'
p1526
tp1527
a(S'37.770871'
p1528
S'-122.179455'
p1529
tp1530
a(S'37.779190'
p1531
S'-122.175187'
p1532
tp1533
a(S'37.772220'
p1534
S'-122.200797'
p1535
tp1536
a(S'37.816737'
p1537
S'-122.234944'
p1538
tp1539
a(S'37.803247'
p1540
S'-122.219578'
p1541
tp1542
a(S'37.806170'
p1543
S'-122.224700'
p1544
tp1545
a(S'37.839444'
p1546
S'-122.222423'
p1547
tp1548
a(S'37.860129'
p1549
S'-122.210187'
p1550
tp1551
a(S'37.841468'
p1552
S'-122.214171'
p1553
tp1554
a(S'37.795378'
p1555
S'-122.186569'
p1556
tp1557
a(S'37.848213'
p1558
S'-122.238927'
p1559
tp1560
a(S'37.851360'
p1561
S'-122.243765'
p1562
tp1563
a(S'37.720959'
p1564
S'-122.177463'
p1565
tp1566
a(S'37.839220'
p1567
S'-122.247180'
p1568
tp1569
a(S'37.780989'
p1570
S'-122.210756'
p1571
tp1572
a(S'37.767049'
p1573
S'-122.212748'
p1574
tp1575
a(S'37.761878'
p1576
S'-122.160390'
p1577
tp1578
a(S'37.839669'
p1579
S'-122.251448'
p1580
tp1581
a(S'37.800998'
p1582
S'-122.228968'
p1583
tp1584
a(S'37.860803'
p1585
S'-122.209334'
p1586
tp1587
a(S'37.813814'
p1588
S'-122.247749'
p1589
tp1590
a(S'37.853609'
p1591
S'-122.281611'
p1592
tp1593
a(S'37.795378'
p1594
S'-122.201081'
p1595
tp1596
a(S'37.794254'
p1597
S'-122.272790'
p1598
tp1599
a(S'37.840119'
p1600
S'-122.263968'
p1601
tp1602
a(S'37.802347'
p1603
S'-122.176040'
p1604
tp1605
a(S'37.802347'
p1606
S'-122.176325'
p1607
tp1608
a(S'37.827978'
p1609
S'-122.187138'
p1610
tp1611
a(S'37.776942'
p1612
S'-122.186854'
p1613
tp1614
a(S'37.865300'
p1615
S'-122.230106'
p1616
tp1617
a(S'37.816961'
p1618
S'-122.216732'
p1619
tp1620
a(S'37.765250'
p1621
S'-122.169211'
p1622
tp1623
a(S'37.822132'
p1624
S'-122.266245'
p1625
tp1626
a(S'37.818985'
p1627
S'-122.249741'
p1628
tp1629
a(S'37.769747'
p1630
S'-122.200797'
p1631
tp1632
a(S'37.754459'
p1633
S'-122.204781'
p1634
tp1635
a(S'37.763901'
p1636
S'-122.171772'
p1637
tp1638
a(S'37.741643'
p1639
S'-122.198236'
p1640
tp1641
a(S'37.850686'
p1642
S'-122.285595'
p1643
tp1644
a(S'37.822807'
p1645
S'-122.187138'
p1646
tp1647
a(S'37.797176'
p1648
S'-122.281895'
p1649
tp1650
a(S'37.870246'
p1651
S'-122.261976'
p1652
tp1653
a(S'37.767049'
p1654
S'-122.169211'
p1655
tp1656
a(S'37.769297'
p1657
S'-122.182016'
p1658
tp1659
a(S'37.791780'
p1660
S'-122.182016'
p1661
tp1662
a(S'37.723882'
p1663
S'-122.181162'
p1664
tp1665
a(S'37.828877'
p1666
S'-122.210472'
p1667
tp1668
a(S'37.758281'
p1669
S'-122.168927'
p1670
tp1671
a(S'37.789532'
p1672
S'-122.225838'
p1673
tp1674
a(S'37.847763'
p1675
S'-122.200512'
p1676
tp1677
a(S'37.822807'
p1678
S'-122.246610'
p1679
tp1680
a(S'37.797851'
p1681
S'-122.201651'
p1682
tp1683
a(S'37.794703'
p1684
S'-122.170918'
p1685
tp1686
a(S'37.843716'
p1687
S'-122.268237'
p1688
tp1689
a(S'37.829102'
p1690
S'-122.268521'
p1691
tp1692
a(S'37.792905'
p1693
S'-122.163235'
p1694
tp1695
a(S'37.852709'
p1696
S'-122.281326'
p1697
tp1698
a(S'37.800998'
p1699
S'-122.178601'
p1700
tp1701
a(S'37.840344'
p1702
S'-122.198520'
p1703
tp1704
a(S'37.778515'
p1705
S'-122.180309'
p1706
tp1707
a(S'37.819435'
p1708
S'-122.263399'
p1709
tp1710
a(S'37.755583'
p1711
S'-122.158967'
p1712
tp1713
a(S'37.723207'
p1714
S'-122.200797'
p1715
tp1716
a(S'37.850011'
p1717
S'-122.262546'
p1718
tp1719
a(S'37.769747'
p1720
S'-122.222139'
p1721
tp1722
a(S'37.737371'
p1723
S'-122.177748'
p1724
tp1725
a(S'37.866424'
p1726
S'-122.277058'
p1727
tp1728
a(S'37.781438'
p1729
S'-122.288440'
p1730
tp1731
a(S'37.775368'
p1732
S'-122.204212'
p1733
tp1734
a(S'37.757381'
p1735
S'-122.182016'
p1736
tp1737
a(S'37.751761'
p1738
S'-122.187992'
p1739
tp1740
a(S'37.829552'
p1741
S'-122.285310'
p1742
tp1743
a(S'37.836746'
p1744
S'-122.206488'
p1745
tp1746
a(S'37.810216'
p1747
S'-122.262546'
p1748
tp1749
a(S'37.830451'
p1750
S'-122.191122'
p1751
tp1752
a(S'37.848662'
p1753
S'-122.252302'
p1754
tp1755
a(S'37.856532'
p1756
S'-122.224984'
p1757
tp1758
a(S'37.809767'
p1759
S'-122.275635'
p1760
tp1761
a(S'37.828877'
p1762
S'-122.252017'
p1763
tp1764
a(S'37.836297'
p1765
S'-122.217586'
p1766
tp1767
a(S'37.825730'
p1768
S'-122.273928'
p1769
tp1770
a(S'37.781888'
p1771
S'-122.275066'
p1772
tp1773
a(S'37.866874'
p1774
S'-122.266245'
p1775
tp1776
a(S'37.730851'
p1777
S'-122.203073'
p1778
tp1779
a(S'37.736697'
p1780
S'-122.184577'
p1781
tp1782
a(S'37.742767'
p1783
S'-122.203642'
p1784
tp1785
a(S'37.777841'
p1786
S'-122.212464'
p1787
tp1788
a(S'37.853609'
p1789
S'-122.267952'
p1790
tp1791
a(S'37.833599'
p1792
S'-122.217586'
p1793
tp1794
a(S'37.782113'
p1795
S'-122.235513'
p1796
tp1797
a(S'37.806394'
p1798
S'-122.184008'
p1799
tp1800
a(S'37.802572'
p1801
S'-122.214456'
p1802
tp1803
a(S'37.852035'
p1804
S'-122.276489'
p1805
tp1806
a(S'37.733100'
p1807
S'-122.188276'
p1808
tp1809
a(S'37.850236'
p1810
S'-122.274782'
p1811
tp1812
a(S'37.824830'
p1813
S'-122.193683'
p1814
tp1815
a(S'37.823931'
p1816
S'-122.271936'
p1817
tp1818
a(S'37.777166'
p1819
S'-122.214456'
p1820
tp1821
a(S'37.812240'
p1822
S'-122.239212'
p1823
tp1824
a(S'37.774918'
p1825
S'-122.181447'
p1826
tp1827
a(S'37.836971'
p1828
S'-122.301814'
p1829
tp1830
a(S'37.802572'
p1831
S'-122.280188'
p1832
tp1833
a(S'37.830451'
p1834
S'-122.256001'
p1835
tp1836
a(S'37.808418'
p1837
S'-122.239497'
p1838
tp1839
a(S'37.795602'
p1840
S'-122.183723'
p1841
tp1842
a(S'37.852709'
p1843
S'-122.226976'
p1844
tp1845
a(S'37.752435'
p1846
S'-122.176610'
p1847
tp1848
a(S'37.769747'
p1849
S'-122.192829'
p1850
tp1851
a(S'37.835173'
p1852
S'-122.294700'
p1853
tp1854
a(S'37.798076'
p1855
S'-122.219008'
p1856
tp1857
a(S'37.796727'
p1858
S'-122.213886'
p1859
tp1860
a(S'37.782338'
p1861
S'-122.175187'
p1862
tp1863
a(S'37.834723'
p1864
S'-122.256285'
p1865
tp1866
a(S'37.830676'
p1867
S'-122.256285'
p1868
tp1869
a(S'37.798525'
p1870
S'-122.186000'
p1871
tp1872
a(S'37.795827'
p1873
S'-122.172057'
p1874
tp1875
a(S'37.863501'
p1876
S'-122.291570'
p1877
tp1878
a(S'37.862152'
p1879
S'-122.259700'
p1880
tp1881
a(S'37.864401'
p1882
S'-122.286448'
p1883
tp1884
a(S'37.845290'
p1885
S'-122.238927'
p1886
tp1887
a(S'37.787059'
p1888
S'-122.275066'
p1889
tp1890
a(S'37.849562'
p1891
S'-122.241488'
p1892
tp1893
a(S'37.828877'
p1894
S'-122.215309'
p1895
tp1896
a(S'37.795153'
p1897
S'-122.196813'
p1898
tp1899
a(S'37.785710'
p1900
S'-122.291286'
p1901
tp1902
a(S'37.856756'
p1903
S'-122.285879'
p1904
tp1905
a(S'37.797851'
p1906
S'-122.213317'
p1907
tp1908
a(S'37.831351'
p1909
S'-122.293562'
p1910
tp1911
a(S'37.785260'
p1912
S'-122.234659'
p1913
tp1914
a(S'37.814938'
p1915
S'-122.201651'
p1916
tp1917
a(S'37.776267'
p1918
S'-122.183723'
p1919
tp1920
a(S'37.794928'
p1921
S'-122.228114'
p1922
tp1923
a(S'37.789307'
p1924
S'-122.276773'
p1925
tp1926
a(S'37.869122'
p1927
S'-122.272505'
p1928
tp1929
a(S'37.749063'
p1930
S'-122.191406'
p1931
tp1932
a(S'37.820783'
p1933
S'-122.254578'
p1934
tp1935
a(S'37.764126'
p1936
S'-122.190837'
p1937
tp1938
a(S'37.834723'
p1939
S'-122.220716'
p1940
tp1941
a(S'37.844840'
p1942
S'-122.233521'
p1943
tp1944
a(S'37.794478'
p1945
S'-122.222992'
p1946
tp1947
a(S'37.771321'
p1948
S'-122.207342'
p1949
tp1950
a(S'37.862602'
p1951
S'-122.218155'
p1952
tp1953
a(S'37.834948'
p1954
S'-122.189130'
p1955
tp1956
a(S'37.858780'
p1957
S'-122.272505'
p1958
tp1959
a(S'37.799874'
p1960
S'-122.176040'
p1961
tp1962
a(S'37.816961'
p1963
S'-122.190553'
p1964
tp1965
a(S'37.841018'
p1966
S'-122.314050'
p1967
tp1968
a(S'37.861703'
p1969
S'-122.225269'
p1970
tp1971
a(S'37.839669'
p1972
S'-122.281611'
p1973
tp1974
a(S'37.822357'
p1975
S'-122.271936'
p1976
tp1977
a(S'37.832700'
p1978
S'-122.275635'
p1979
tp1980
a(S'37.861478'
p1981
S'-122.231244'
p1982
tp1983
a(S'37.847313'
p1984
S'-122.279334'
p1985
tp1986
a(S'37.859904'
p1987
S'-122.285026'
p1988
tp1989
a(S'37.793129'
p1990
S'-122.201935'
p1991
tp1992
a(S'37.850461'
p1993
S'-122.281895'
p1994
tp1995
a(S'37.776042'
p1996
S'-122.188276'
p1997
tp1998
a(S'37.722308'
p1999
S'-122.215025'
p2000
tp2001
a(S'37.853609'
p2002
S'-122.213886'
p2003
tp2004
a(S'37.820783'
p2005
S'-122.256285'
p2006
tp2007
a(S'37.819435'
p2008
S'-122.257708'
p2009
tp2010
a(S'37.836746'
p2011
S'-122.279050'
p2012
tp2013
a(S'37.825055'
p2014
S'-122.193398'
p2015
tp2016
a(S'37.845290'
p2017
S'-122.298400'
p2018
tp2019
a(S'37.846189'
p2020
S'-122.213886'
p2021
tp2022
a(S'37.799200'
p2023
S'-122.268806'
p2024
tp2025
a(S'37.771770'
p2026
S'-122.208764'
p2027
tp2028
a(S'37.824606'
p2029
S'-122.258846'
p2030
tp2031
a(S'37.818310'
p2032
S'-122.244334'
p2033
tp2034
a(S'37.825055'
p2035
S'-122.268237'
p2036
tp2037
a(S'37.827978'
p2038
S'-122.209618'
p2039
tp2040
a(S'37.832475'
p2041
S'-122.219008'
p2042
tp2043
a(S'37.857656'
p2044
S'-122.277627'
p2045
tp2046
a(S'37.759405'
p2047
S'-122.194821'
p2048
tp2049
a(S'37.841468'
p2050
S'-122.272221'
p2051
tp2052
a(S'37.842817'
p2053
S'-122.285595'
p2054
tp2055
a(S'37.731301'
p2056
S'-122.207626'
p2057
tp2058
a(S'37.859229'
p2059
S'-122.240635'
p2060
tp2061
a(S'37.784136'
p2062
S'-122.213033'
p2063
tp2064
a(S'37.806394'
p2065
S'-122.240066'
p2066
tp2067
a(S'37.806170'
p2068
S'-122.203073'
p2069
tp2070
a(S'37.808867'
p2071
S'-122.221285'
p2072
tp2073
a(S'37.758505'
p2074
S'-122.184577'
p2075
tp2076
a(S'37.816062'
p2077
S'-122.223846'
p2078
tp2079
a(S'37.792005'
p2080
S'-122.197098'
p2081
tp2082
a(S'37.801448'
p2083
S'-122.192829'
p2084
tp2085
a(S'37.794928'
p2086
S'-122.275635'
p2087
tp2088
a(S'37.756482'
p2089
S'-122.168927'
p2090
tp2091
a(S'37.749063'
p2092
S'-122.184008'
p2093
tp2094
a(S'37.804371'
p2095
S'-122.199374'
p2096
tp2097
a(S'37.805045'
p2098
S'-122.250025'
p2099
tp2100
a(S'37.823032'
p2101
S'-122.255432'
p2102
tp2103
a(S'37.787284'
p2104
S'-122.207057'
p2105
tp2106
a(S'37.817636'
p2107
S'-122.191691'
p2108
tp2109
a(S'37.854508'
p2110
S'-122.272221'
p2111
tp2112
a(S'37.867773'
p2113
S'-122.246326'
p2114
tp2115
a(S'37.834948'
p2116
S'-122.279334'
p2117
tp2118
a(S'37.801448'
p2119
S'-122.220716'
p2120
tp2121
a(S'37.780314'
p2122
S'-122.206203'
p2123
tp2124
a(S'37.731526'
p2125
S'-122.187992'
p2126
tp2127
a(S'37.847313'
p2128
S'-122.282180'
p2129
tp2130
a(S'37.851136'
p2131
S'-122.289294'
p2132
tp2133
a(S'37.875192'
p2134
S'-122.271936'
p2135
tp2136
a(S'37.789307'
p2137
S'-122.199374'
p2138
tp2139
a(S'37.803472'
p2140
S'-122.242342'
p2141
tp2142
a(S'37.809767'
p2143
S'-122.190268'
p2144
tp2145
a(S'37.847313'
p2146
S'-122.214456'
p2147
tp2148
a(S'37.746365'
p2149
S'-122.174049'
p2150
tp2151
a(S'37.811790'
p2152
S'-122.277912'
p2153
tp2154
a(S'37.842592'
p2155
S'-122.271082'
p2156
tp2157
a(S'37.815612'
p2158
S'-122.216732'
p2159
tp2160
a(S'37.818086'
p2161
S'-122.267098'
p2162
tp2163
a(S'37.838995'
p2164
S'-122.275351'
p2165
tp2166
a(S'37.794029'
p2167
S'-122.265391'
p2168
tp2169
a(S'37.795827'
p2170
S'-122.197098'
p2171
tp2172
a(S'37.808867'
p2173
S'-122.256285'
p2174
tp2175
a(S'37.849787'
p2176
S'-122.234659'
p2177
tp2178
a(S'37.765475'
p2179
S'-122.175756'
p2180
tp2181
a(S'37.808418'
p2182
S'-122.237220'
p2183
tp2184
a(S'37.720734'
p2185
S'-122.178317'
p2186
tp2187
a(S'37.825280'
p2188
S'-122.214456'
p2189
tp2190
a(S'37.809767'
p2191
S'-122.255432'
p2192
tp2193
a(S'37.872944'
p2194
S'-122.279904'
p2195
tp2196
a(S'37.853384'
p2197
S'-122.222423'
p2198
tp2199
a(S'37.815612'
p2200
S'-122.262830'
p2201
tp2202
a(S'37.804146'
p2203
S'-122.269660'
p2204
tp2205
a(S'37.799649'
p2206
S'-122.231244'
p2207
tp2208
a(S'37.816961'
p2209
S'-122.238643'
p2210
tp2211
a(S'37.784586'
p2212
S'-122.276489'
p2213
tp2214
a(S'37.816062'
p2215
S'-122.266529'
p2216
tp2217
a(S'37.795602'
p2218
S'-122.215309'
p2219
tp2220
a(S'37.791106'
p2221
S'-122.201081'
p2222
tp2223
a(S'37.796277'
p2224
S'-122.228399'
p2225
tp2226
a(S'37.773794'
p2227
S'-122.226691'
p2228
tp2229
a(S'37.838095'
p2230
S'-122.295839'
p2231
tp2232
a(S'37.785485'
p2233
S'-122.291286'
p2234
tp2235
a(S'37.773119'
p2236
S'-122.188276'
p2237
tp2238
a(S'37.754908'
p2239
S'-122.171488'
p2240
tp2241
a(S'37.837646'
p2242
S'-122.288440'
p2243
tp2244
a(S'37.824381'
p2245
S'-122.250025'
p2246
tp2247
a(S'37.817861'
p2248
S'-122.223846'
p2249
tp2250
a(S'37.827753'
p2251
S'-122.254293'
p2252
tp2253
a(S'37.828203'
p2254
S'-122.258562'
p2255
tp2256
a(S'37.826404'
p2257
S'-122.252302'
p2258
tp2259
a(S'37.863501'
p2260
S'-122.271367'
p2261
tp2262
a(S'37.834723'
p2263
S'-122.218724'
p2264
tp2265
a(S'37.730402'
p2266
S'-122.188845'
p2267
tp2268
a(S'37.825730'
p2269
S'-122.204781'
p2270
tp2271
a(S'37.816961'
p2272
S'-122.236366'
p2273
tp2274
a(S'37.773569'
p2275
S'-122.202504'
p2276
tp2277
a(S'37.850911'
p2278
S'-122.249171'
p2279
tp2280
a(S'37.854283'
p2281
S'-122.286448'
p2282
tp2283
a(S'37.869797'
p2284
S'-122.272790'
p2285
tp2286
a(S'37.871146'
p2287
S'-122.223846'
p2288
tp2289
a(S'37.807294'
p2290
S'-122.244334'
p2291
tp2292
a(S'37.803247'
p2293
S'-122.210756'
p2294
tp2295
a(S'37.852035'
p2296
S'-122.281042'
p2297
tp2298
a(S'37.843042'
p2299
S'-122.244049'
p2300
tp2301
a(S'37.771321'
p2302
S'-122.197098'
p2303
tp2304
a(S'37.823706'
p2305
S'-122.267098'
p2306
tp2307
a(S'37.756032'
p2308
S'-122.163520'
p2309
tp2310
a(S'37.854508'
p2311
S'-122.275920'
p2312
tp2313
a(S'37.857431'
p2314
S'-122.283034'
p2315
tp2316
a(S'37.840119'
p2317
S'-122.267383'
p2318
tp2319
a(S'37.826404'
p2320
S'-122.198805'
p2321
tp2322
a(S'37.861028'
p2323
S'-122.289863'
p2324
tp2325
a(S'37.806844'
p2326
S'-122.240635'
p2327
tp2328
a(S'37.841693'
p2329
S'-122.217870'
p2330
tp2331
a(S'37.756707'
p2332
S'-122.193398'
p2333
tp2334
a(S'37.812690'
p2335
S'-122.243765'
p2336
tp2337
a(S'37.853834'
p2338
S'-122.259985'
p2339
tp2340
a(S'37.809542'
p2341
S'-122.189699'
p2342
tp2343
a(S'37.842367'
p2344
S'-122.209903'
p2345
tp2346
a(S'37.802797'
p2347
S'-122.231813'
p2348
tp2349
a(S'37.834723'
p2350
S'-122.291570'
p2351
tp2352
a(S'37.814938'
p2353
S'-122.246041'
p2354
tp2355
a(S'37.829552'
p2356
S'-122.292424'
p2357
tp2358
a(S'37.830226'
p2359
S'-122.199659'
p2360
tp2361
a(S'37.865525'
p2362
S'-122.281611'
p2363
tp2364
a(S'37.727929'
p2365
S'-122.181162'
p2366
tp2367
a(S'37.784811'
p2368
S'-122.181447'
p2369
tp2370
a(S'37.801223'
p2371
S'-122.282180'
p2372
tp2373
a(S'37.785485'
p2374
S'-122.211325'
p2375
tp2376
a(S'37.714888'
p2377
S'-122.172626'
p2378
tp2379
a(S'37.758955'
p2380
S'-122.187138'
p2381
tp2382
a(S'37.869122'
p2383
S'-122.240919'
p2384
tp2385
a(S'37.825280'
p2386
S'-122.271651'
p2387
tp2388
a(S'37.845965'
p2389
S'-122.271651'
p2390
tp2391
a(S'37.732875'
p2392
S'-122.213886'
p2393
tp2394
a(S'37.716462'
p2395
S'-122.187138'
p2396
tp2397
a(S'37.825730'
p2398
S'-122.281042'
p2399
tp2400
a(S'37.875417'
p2401
S'-122.292139'
p2402
tp2403
a(S'37.791780'
p2404
S'-122.228399'
p2405
tp2406
a(S'37.849787'
p2407
S'-122.236082'
p2408
tp2409
a(S'37.778740'
p2410
S'-122.280473'
p2411
tp2412
a(S'37.761203'
p2413
S'-122.164658'
p2414
tp2415
a(S'37.785485'
p2416
S'-122.193114'
p2417
tp2418
a(S'37.787059'
p2419
S'-122.198805'
p2420
tp2421
a(S'37.854508'
p2422
S'-122.223277'
p2423
tp2424
a(S'37.861703'
p2425
S'-122.264253'
p2426
tp2427
a(S'37.826404'
p2428
S'-122.277912'
p2429
tp2430
a(S'37.839220'
p2431
S'-122.303806'
p2432
tp2433
a(S'37.768173'
p2434
S'-122.220716'
p2435
tp2436
a(S'37.862602'
p2437
S'-122.223561'
p2438
tp2439
a(S'37.820109'
p2440
S'-122.197382'
p2441
tp2442
a(S'37.800099'
p2443
S'-122.193683'
p2444
tp2445
a(S'37.803247'
p2446
S'-122.227261'
p2447
tp2448
a(S'37.827079'
p2449
S'-122.255432'
p2450
tp2451
a(S'37.776042'
p2452
S'-122.284172'
p2453
tp2454
a(S'37.807294'
p2455
S'-122.269660'
p2456
tp2457
a(S'37.877216'
p2458
S'-122.278196'
p2459
tp2460
a(S'37.836522'
p2461
S'-122.199090'
p2462
tp2463
a(S'37.752210'
p2464
S'-122.195390'
p2465
tp2466
a(S'37.766599'
p2467
S'-122.187707'
p2468
tp2469
a(S'37.826854'
p2470
S'-122.263684'
p2471
tp2472
a(S'37.754908'
p2473
S'-122.194537'
p2474
tp2475
a(S'37.841018'
p2476
S'-122.219008'
p2477
tp2478
a(S'37.833599'
p2479
S'-122.279334'
p2480
tp2481
a(S'37.792005'
p2482
S'-122.217586'
p2483
tp2484
a(S'37.856082'
p2485
S'-122.289294'
p2486
tp2487
a(S'37.780539'
p2488
S'-122.283034'
p2489
tp2490
a(S'37.831126'
p2491
S'-122.246326'
p2492
tp2493
a(S'37.736247'
p2494
S'-122.213602'
p2495
tp2496
a(S'37.775593'
p2497
S'-122.214456'
p2498
tp2499
a(S'37.715338'
p2500
S'-122.189984'
p2501
tp2502
a(S'37.844616'
p2503
S'-122.236936'
p2504
tp2505
a(S'37.727029'
p2506
S'-122.199943'
p2507
tp2508
a(S'37.795378'
p2509
S'-122.191122'
p2510
tp2511
a(S'37.784811'
p2512
S'-122.189415'
p2513
tp2514
a(S'37.793804'
p2515
S'-122.195390'
p2516
tp2517
a(S'37.827978'
p2518
S'-122.274497'
p2519
tp2520
a(S'37.837421'
p2521
S'-122.260838'
p2522
tp2523
a(S'37.719610'
p2524
S'-122.176040'
p2525
tp2526
a(S'37.778291'
p2527
S'-122.215878'
p2528
tp2529
a(S'37.803247'
p2530
S'-122.211895'
p2531
tp2532
a(S'37.786834'
p2533
S'-122.226976'
p2534
tp2535
a(S'37.833824'
p2536
S'-122.205919'
p2537
tp2538
a(S'37.733324'
p2539
S'-122.212748'
p2540
tp2541
a(S'37.824156'
p2542
S'-122.213602'
p2543
tp2544
a(S'37.838995'
p2545
S'-122.222992'
p2546
tp2547
a(S'37.787509'
p2548
S'-122.227830'
p2549
tp2550
a(S'37.820109'
p2551
S'-122.195675'
p2552
tp2553
a(S'37.867548'
p2554
S'-122.265960'
p2555
tp2556
a(S'37.848887'
p2557
S'-122.204496'
p2558
tp2559
a(S'37.786609'
p2560
S'-122.209618'
p2561
tp2562
a(S'37.778965'
p2563
S'-122.198805'
p2564
tp2565
a(S'37.865525'
p2566
S'-122.261976'
p2567
tp2568
a(S'37.794478'
p2569
S'-122.267668'
p2570
tp2571
a(S'37.783686'
p2572
S'-122.278196'
p2573
tp2574
a(S'37.845740'
p2575
S'-122.276489'
p2576
tp2577
a(S'37.789532'
p2578
S'-122.195959'
p2579
tp2580
a(S'37.846414'
p2581
S'-122.247749'
p2582
tp2583
a(S'37.815612'
p2584
S'-122.230960'
p2585
tp2586
a(S'37.821908'
p2587
S'-122.287587'
p2588
tp2589
a(S'37.823706'
p2590
S'-122.192829'
p2591
tp2592
a(S'37.764351'
p2593
S'-122.200797'
p2594
tp2595
a(S'37.759854'
p2596
S'-122.183439'
p2597
tp2598
a(S'37.748838'
p2599
S'-122.178601'
p2600
tp2601
a(S'37.776492'
p2602
S'-122.171772'
p2603
tp2604
a(S'37.798300'
p2605
S'-122.194537'
p2606
tp2607
a(S'37.792905'
p2608
S'-122.158113'
p2609
tp2610
a(S'37.816512'
p2611
S'-122.221854'
p2612
tp2613
a(S'37.807294'
p2614
S'-122.264822'
p2615
tp2616
a(S'37.831800'
p2617
S'-122.215025'
p2618
tp2619
a(S'37.808643'
p2620
S'-122.274212'
p2621
tp2622
a(S'37.820109'
p2623
S'-122.276204'
p2624
tp2625
a(S'37.787509'
p2626
S'-122.168357'
p2627
tp2628
a(S'37.849112'
p2629
S'-122.226122'
p2630
tp2631
a(S'37.732200'
p2632
S'-122.192260'
p2633
tp2634
a(S'37.804371'
p2635
S'-122.197951'
p2636
tp2637
a(S'37.854733'
p2638
S'-122.246610'
p2639
tp2640
a(S'37.869797'
p2641
S'-122.275066'
p2642
tp2643
a(S'37.805270'
p2644
S'-122.202789'
p2645
tp2646
a(S'37.758955'
p2647
S'-122.180593'
p2648
tp2649
a(S'37.784586'
p2650
S'-122.285026'
p2651
tp2652
a(S'37.750412'
p2653
S'-122.191122'
p2654
tp2655
a(S'37.853159'
p2656
S'-122.240350'
p2657
tp2658
a(S'37.764576'
p2659
S'-122.217586'
p2660
tp2661
a(S'37.750187'
p2662
S'-122.191406'
p2663
tp2664
a(S'37.838320'
p2665
S'-122.191976'
p2666
tp2667
a(S'37.835397'
p2668
S'-122.259131'
p2669
tp2670
a(S'37.770197'
p2671
S'-122.217870'
p2672
tp2673
a(S'37.867548'
p2674
S'-122.220147'
p2675
tp2676
a(S'37.803472'
p2677
S'-122.285026'
p2678
tp2679
a(S'37.843042'
p2680
S'-122.243480'
p2681
tp2682
a(S'37.817411'
p2683
S'-122.188845'
p2684
tp2685
a(S'37.810891'
p2686
S'-122.250025'
p2687
tp2688
a(S'37.815837'
p2689
S'-122.217017'
p2690
tp2691
a(S'37.781438'
p2692
S'-122.283887'
p2693
tp2694
a(S'37.749512'
p2695
S'-122.167504'
p2696
tp2697
a(S'37.847988'
p2698
S'-122.236366'
p2699
tp2700
a(S'37.821233'
p2701
S'-122.201366'
p2702
tp2703
a(S'37.749287'
p2704
S'-122.172626'
p2705
tp2706
a(S'37.783911'
p2707
S'-122.289009'
p2708
tp2709
a(S'37.830901'
p2710
S'-122.256001'
p2711
tp2712
a(S'37.850911'
p2713
S'-122.228399'
p2714
tp2715
a(S'37.833149'
p2716
S'-122.279619'
p2717
tp2718
a(S'37.863052'
p2719
S'-122.251448'
p2720
tp2721
a(S'37.842142'
p2722
S'-122.283318'
p2723
tp2724
a(S'37.857656'
p2725
S'-122.287587'
p2726
tp2727
a(S'37.859454'
p2728
S'-122.269375'
p2729
tp2730
a(S'37.807519'
p2731
S'-122.241204'
p2732
tp2733
a(S'37.856532'
p2734
S'-122.222708'
p2735
tp2736
a(S'37.857881'
p2737
S'-122.214171'
p2738
tp2739
a(S'37.856532'
p2740
S'-122.294700'
p2741
tp2742
a(S'37.825505'
p2743
S'-122.186284'
p2744
tp2745
a(S'37.836746'
p2746
S'-122.296408'
p2747
tp2748
a(S'37.841693'
p2749
S'-122.236082'
p2750
tp2751
a(S'37.791331'
p2752
S'-122.215025'
p2753
tp2754
a(S'37.796951'
p2755
S'-122.189130'
p2756
tp2757
a(S'37.821908'
p2758
S'-122.195390'
p2759
tp2760
a(S'37.838770'
p2761
S'-122.209903'
p2762
tp2763
a(S'37.847089'
p2764
S'-122.260838'
p2765
tp2766
a(S'37.853384'
p2767
S'-122.256285'
p2768
tp2769
a(S'37.850461'
p2770
S'-122.270798'
p2771
tp2772
a(S'37.727704'
p2773
S'-122.197098'
p2774
tp2775
a(S'37.752885'
p2776
S'-122.164658'
p2777
tp2778
a(S'37.749512'
p2779
S'-122.185431'
p2780
tp2781
a(S'37.819884'
p2782
S'-122.199943'
p2783
tp2784
a(S'37.746589'
p2785
S'-122.173764'
p2786
tp2787
a(S'37.821008'
p2788
S'-122.259985'
p2789
tp2790
a(S'37.758505'
p2791
S'-122.171488'
p2792
tp2793
a(S'37.821233'
p2794
S'-122.257708'
p2795
tp2796
a(S'37.857881'
p2797
S'-122.245472'
p2798
tp2799
a(S'37.827079'
p2800
S'-122.281326'
p2801
tp2802
a(S'37.829102'
p2803
S'-122.194537'
p2804
tp2805
a(S'37.821908'
p2806
S'-122.187138'
p2807
tp2808
a(S'37.841918'
p2809
S'-122.266245'
p2810
tp2811
a(S'37.843491'
p2812
S'-122.275635'
p2813
tp2814
a(S'37.846864'
p2815
S'-122.252586'
p2816
tp2817
a(S'37.758505'
p2818
S'-122.188276'
p2819
tp2820
a(S'37.767724'
p2821
S'-122.157829'
p2822
tp2823
a(S'37.818086'
p2824
S'-122.227545'
p2825
tp2826
a(S'37.800774'
p2827
S'-122.272790'
p2828
tp2829
a(S'37.811341'
p2830
S'-122.230960'
p2831
tp2832
a(S'37.771096'
p2833
S'-122.220716'
p2834
tp2835
a(S'37.858555'
p2836
S'-122.233236'
p2837
tp2838
a(S'37.812240'
p2839
S'-122.258277'
p2840
tp2841
a(S'37.858555'
p2842
S'-122.271651'
p2843
tp2844
a(S'37.858105'
p2845
S'-122.280188'
p2846
tp2847
a(S'37.800774'
p2848
S'-122.274497'
p2849
tp2850
a(S'37.854508'
p2851
S'-122.254863'
p2852
tp2853
a(S'37.800099'
p2854
S'-122.226976'
p2855
tp2856
a(S'37.859454'
p2857
S'-122.236082'
p2858
tp2859
a(S'37.842142'
p2860
S'-122.212464'
p2861
tp2862
a(S'37.854733'
p2863
S'-122.211041'
p2864
tp2865
a(S'37.793804'
p2866
S'-122.214456'
p2867
tp2868
a(S'37.774693'
p2869
S'-122.233521'
p2870
tp2871
a(S'37.857431'
p2872
S'-122.222423'
p2873
tp2874
a(S'37.845965'
p2875
S'-122.293847'
p2876
tp2877
a(S'37.788183'
p2878
S'-122.222139'
p2879
tp2880
a(S'37.859679'
p2881
S'-122.287302'
p2882
tp2883
a(S'37.795378'
p2884
S'-122.208480'
p2885
tp2886
a(S'37.788183'
p2887
S'-122.202220'
p2888
tp2889
a(S'37.820109'
p2890
S'-122.244334'
p2891
tp2892
a(S'37.785935'
p2893
S'-122.225553'
p2894
tp2895
a(S'37.788408'
p2896
S'-122.185715'
p2897
tp2898
a(S'37.803022'
p2899
S'-122.243765'
p2900
tp2901
a(S'37.825280'
p2902
S'-122.277627'
p2903
tp2904
a(S'37.836971'
p2905
S'-122.203642'
p2906
tp2907
a(S'37.798750'
p2908
S'-122.275920'
p2909
tp2910
a(S'37.791331'
p2911
S'-122.181447'
p2912
tp2913
a(S'37.866874'
p2914
S'-122.286164'
p2915
tp2916
a(S'37.843716'
p2917
S'-122.253155'
p2918
tp2919
a(S'37.772445'
p2920
S'-122.228114'
p2921
tp2922
a(S'37.731301'
p2923
S'-122.189699'
p2924
tp2925
a(S'37.828877'
p2926
S'-122.264537'
p2927
tp2928
a(S'37.798750'
p2929
S'-122.289009'
p2930
tp2931
a(S'37.832025'
p2932
S'-122.258277'
p2933
tp2934
a(S'37.835173'
p2935
S'-122.265107'
p2936
tp2937
a(S'37.801673'
p2938
S'-122.230675'
p2939
tp2940
a(S'37.859229'
p2941
S'-122.235797'
p2942
tp2943
a(S'37.823931'
p2944
S'-122.282180'
p2945
tp2946
a(S'37.854733'
p2947
S'-122.274782'
p2948
tp2949
a(S'37.845740'
p2950
S'-122.252017'
p2951
tp2952
a(S'37.854283'
p2953
S'-122.260838'
p2954
tp2955
a(S'37.836522'
p2956
S'-122.251163'
p2957
tp2958
a(S'37.779415'
p2959
S'-122.291286'
p2960
tp2961
a(S'37.847089'
p2962
S'-122.261692'
p2963
tp2964
a(S'37.791556'
p2965
S'-122.205065'
p2966
tp2967
a(S'37.849787'
p2968
S'-122.203358'
p2969
tp2970
a(S'37.798975'
p2971
S'-122.281611'
p2972
tp2973
a(S'37.832700'
p2974
S'-122.190268'
p2975
tp2976
a(S'37.724331'
p2977
S'-122.174902'
p2978
tp2979
a(S'37.830451'
p2980
S'-122.272790'
p2981
tp2982
a(S'37.859005'
p2983
S'-122.237505'
p2984
tp2985
a(S'37.796727'
p2986
S'-122.264822'
p2987
tp2988
a(S'37.764801'
p2989
S'-122.213886'
p2990
tp2991
a(S'37.848662'
p2992
S'-122.201935'
p2993
tp2994
a(S'37.877666'
p2995
S'-122.278481'
p2996
tp2997
a(S'37.720509'
p2998
S'-122.178601'
p2999
tp3000
a.