(dp0
(S'37.797401'
p1
S'-122.201651'
p2
tp3
S'113620'
p4
s(S'37.830451'
p5
S'-122.272790'
p6
tp7
S'63067'
p8
s(S'37.807519'
p9
S'-122.241204'
p10
tp11
S'83784'
p12
s(S'37.813139'
p13
S'-122.274782'
p14
tp15
S'52707'
p16
s(S'37.847988'
p17
S'-122.236366'
p18
tp19
S'243730'
p20
s(S'37.857431'
p21
S'-122.283034'
p22
tp23
S'80920'
p24
s(S'37.781438'
p25
S'-122.288440'
p26
tp27
S'105678'
p28
s(S'37.856532'
p29
S'-122.222708'
p30
tp31
S'238371'
p32
s(S'37.878790'
p33
S'-122.277343'
p34
tp35
S'120617'
p36
s(S'37.773569'
p37
S'-122.194537'
p38
tp39
S'79874'
p40
s(S'37.850911'
p41
S'-122.228399'
p42
tp43
g32
s(S'37.808193'
p44
S'-122.220716'
p45
tp46
S'145380'
p47
s(S'37.785710'
p48
S'-122.291286'
p49
tp50
g28
s(S'37.829327'
p51
S'-122.279619'
p52
tp53
S'82495'
p54
s(S'37.782113'
p55
S'-122.188845'
p56
tp57
S'88460'
p58
s(S'37.806170'
p59
S'-122.224700'
p60
tp61
S'99628'
p62
s(S'37.792005'
p63
S'-122.197098'
p64
tp65
g4
s(S'37.801673'
p66
S'-122.178601'
p67
tp68
S'203756'
p69
s(S'37.803022'
p70
S'-122.243480'
p71
tp72
g12
s(S'37.782338'
p73
S'-122.175187'
p74
tp75
S'135961'
p76
s(S'37.837871'
p77
S'-122.296692'
p78
tp79
S'84732'
p80
s(S'37.818086'
p81
S'-122.181732'
p82
tp83
S'199251'
p84
s(S'37.789757'
p85
S'-122.206488'
p86
tp87
S'61336'
p88
s(S'37.764351'
p89
S'-122.200797'
p90
tp91
S'65703'
p92
s(S'37.816062'
p93
S'-122.223846'
p94
tp95
S'342987'
p96
s(S'37.834723'
p97
S'-122.218724'
p98
tp99
S'201365'
p100
s(S'37.845740'
p101
S'-122.252017'
p102
tp103
S'181040'
p104
s(S'37.720509'
p105
S'-122.178601'
p106
tp107
S'70180'
p108
s(S'37.754459'
p109
S'-122.181162'
p110
tp111
S'34503'
p112
s(S'37.826854'
p113
S'-122.263684'
p114
tp115
S'74008'
p116
s(S'37.764576'
p117
S'-122.217586'
p118
tp119
g92
s(S'37.743667'
p120
S'-122.188845'
p121
tp122
S'58818'
p123
s(S'37.832924'
p124
S'-122.250879'
p125
tp126
S'106750'
p127
s(S'37.869347'
p128
S'-122.250594'
p129
tp130
S'397940'
p131
s(S'37.723882'
p132
S'-122.201081'
p133
tp134
g123
s(S'37.856082'
p135
S'-122.241488'
p136
tp137
S'265679'
p138
s(S'37.777616'
p139
S'-122.203358'
p140
tp141
S'63684'
p142
s(S'37.766599'
p143
S'-122.187707'
p144
tp145
S'50815'
p146
s(S'37.757156'
p147
S'-122.188276'
p148
tp149
g112
s(S'37.798300'
p150
S'-122.267668'
p151
tp152
S'73051'
p153
s(S'37.785485'
p154
S'-122.291286'
p155
tp156
g28
s(S'37.770197'
p157
S'-122.217870'
p158
tp159
S'67572'
p160
s(S'37.833824'
p161
S'-122.205919'
p162
tp163
S'169770'
p164
s(S'37.806844'
p165
S'-122.226122'
p166
tp167
g47
s(S'37.825505'
p168
S'-122.259415'
p169
tp170
S'99419'
p171
s(S'37.833599'
p172
S'-122.217586'
p173
tp174
S'186438'
p175
s(S'37.754908'
p176
S'-122.196528'
p177
tp178
S'36982'
p179
s(S'37.758505'
p180
S'-122.171488'
p181
tp182
S'52470'
p183
s(S'37.846414'
p184
S'-122.247749'
p185
tp186
g104
s(S'37.778291'
p187
S'-122.215878'
p188
tp189
S'45348'
p190
s(S'37.825505'
p191
S'-122.267098'
p192
tp193
g116
s(S'37.773569'
p194
S'-122.202504'
p195
tp196
g142
s(S'37.795153'
p197
S'-122.196813'
p198
tp199
g4
s(S'37.812240'
p200
S'-122.258277'
p201
tp202
S'71906'
p203
s(S'37.800774'
p204
S'-122.274497'
p205
tp206
S'77265'
p207
s(S'37.784586'
p208
S'-122.276489'
p209
tp210
S'103863'
p211
s(S'37.820783'
p212
S'-122.254578'
p213
tp214
S'60886'
p215
s(S'37.839220'
p216
S'-122.247180'
p217
tp218
g20
s(S'37.860803'
p219
S'-122.250594'
p220
tp221
S'109688'
p222
s(S'37.825055'
p223
S'-122.283887'
p224
tp225
S'88813'
p226
s(S'37.850236'
p227
S'-122.274782'
p228
tp229
S'63031'
p230
s(S'37.815837'
p231
S'-122.217017'
p232
tp233
g96
s(S'37.839444'
p234
S'-122.272790'
p235
tp236
S'60252'
p237
s(S'37.762103'
p238
S'-122.198520'
p239
tp240
g179
s(S'37.855632'
p241
S'-122.289009'
p242
tp243
S'79930'
p244
s(S'37.786160'
p245
S'-122.180878'
p246
tp247
S'118221'
p248
s(S'37.816961'
p249
S'-122.240635'
p250
tp251
S'104811'
p252
s(S'37.860129'
p253
S'-122.280473'
p254
tp255
S'93586'
p256
s(S'37.791331'
p257
S'-122.181447'
p258
tp259
g248
s(S'37.815612'
p260
S'-122.209618'
p261
tp262
S'179252'
p263
s(S'37.848887'
p264
S'-122.204496'
p265
tp266
g175
s(S'37.785485'
p267
S'-122.211325'
p268
tp269
S'51209'
p270
s(S'37.847313'
p271
S'-122.244619'
p272
tp273
S'132725'
p274
s(S'37.794478'
p275
S'-122.267668'
p276
tp277
g153
s(S'37.749512'
p278
S'-122.167504'
p279
tp280
S'53159'
p281
s(S'37.828203'
p282
S'-122.207057'
p283
tp284
g164
s(S'37.818310'
p285
S'-122.244334'
p286
tp287
g252
s(S'37.830901'
p288
S'-122.219578'
p289
tp290
S'269798'
p291
s(S'37.812914'
p292
S'-122.226976'
p293
tp294
S'232865'
p295
s(S'37.833599'
p296
S'-122.279334'
p297
tp298
g54
s(S'37.833149'
p299
S'-122.279619'
p300
tp301
g54
s(S'37.830451'
p302
S'-122.208195'
p303
tp304
g164
s(S'37.758505'
p305
S'-122.184577'
p306
tp307
S'53648'
p308
s(S'37.838770'
p309
S'-122.209903'
p310
tp311
g164
s(S'37.764801'
p312
S'-122.213886'
p313
tp314
g92
s(S'37.779190'
p315
S'-122.175187'
p316
tp317
S'61608'
p318
s(S'37.730851'
p319
S'-122.203073'
p320
tp321
g123
s(S'37.832250'
p322
S'-122.280473'
p323
tp324
g54
s(S'37.794478'
p325
S'-122.222992'
p326
tp327
S'69381'
p328
s(S'37.783237'
p329
S'-122.224415'
p330
tp331
S'38766'
p332
s(S'37.781888'
p333
S'-122.173195'
p334
tp335
g76
s(S'37.762103'
p336
S'-122.190837'
p337
tp338
S'41122'
p339
s(S'37.825730'
p340
S'-122.204781'
p341
tp342
g164
s(S'37.787509'
p343
S'-122.227830'
p344
tp345
S'43014'
p346
s(S'37.826854'
p347
S'-122.277627'
p348
tp349
g8
s(S'37.831351'
p350
S'-122.207057'
p351
tp352
g164
s(S'37.774468'
p353
S'-122.187992'
p354
tp355
g40
s(S'37.817411'
p356
S'-122.228968'
p357
tp358
g96
s(S'37.736697'
p359
S'-122.184577'
p360
tp361
g123
s(S'37.821008'
p362
S'-122.259985'
p363
tp364
g215
s(S'37.826404'
p365
S'-122.198805'
p366
tp367
g84
s(S'37.837871'
p368
S'-122.187992'
p369
tp370
S'158575'
p371
s(S'37.819435'
p372
S'-122.263399'
p373
tp374
S'60841'
p375
s(S'37.859229'
p376
S'-122.235797'
p377
tp378
g32
s(S'37.799649'
p379
S'-122.231244'
p380
tp381
S'49200'
p382
s(S'37.811790'
p383
S'-122.277912'
p384
tp385
S'59935'
p386
s(S'37.722308'
p387
S'-122.176894'
p388
tp389
S'72785'
p390
s(S'37.719610'
p391
S'-122.176040'
p392
tp393
g390
s(S'37.850686'
p394
S'-122.285595'
p395
tp396
S'62063'
p397
s(S'37.756257'
p398
S'-122.188845'
p399
tp400
g112
s(S'37.827079'
p401
S'-122.281326'
p402
tp403
S'64601'
p404
s(S'37.842817'
p405
S'-122.285595'
p406
tp407
S'76848'
p408
s(S'37.822807'
p409
S'-122.187138'
p410
tp411
g84
s(S'37.832475'
p412
S'-122.262261'
p413
tp414
g116
s(S'37.768848'
p415
S'-122.185715'
p416
tp417
g146
s(S'37.867773'
p418
S'-122.246326'
p419
tp420
S'53386'
p421
s(S'37.735798'
p422
S'-122.201651'
p423
tp424
g123
s(S'37.808418'
p425
S'-122.268521'
p426
tp427
S'47440'
p428
s(S'37.866649'
p429
S'-122.253155'
p430
tp431
g421
s(S'37.808418'
p432
S'-122.241773'
p433
tp434
g12
s(S'37.796052'
p435
S'-122.180593'
p436
tp437
g76
s(S'37.800549'
p438
S'-122.222992'
p439
tp440
g62
s(S'37.731301'
p441
S'-122.189699'
p442
tp443
g123
s(S'37.802347'
p444
S'-122.176040'
p445
tp446
g69
s(S'37.715338'
p447
S'-122.190268'
p448
tp449
g108
s(S'37.789532'
p450
S'-122.195959'
p451
tp452
S'94027'
p453
s(S'37.821458'
p454
S'-122.207342'
p455
tp456
g263
s(S'37.806170'
p457
S'-122.203073'
p458
tp459
S'96729'
p460
s(S'37.794928'
p461
S'-122.207342'
p462
tp463
S'59995'
p464
s(S'37.829552'
p465
S'-122.264253'
p466
tp467
g116
s(S'37.828203'
p468
S'-122.258562'
p469
tp470
g171
s(S'37.774918'
p471
S'-122.181447'
p472
tp473
g146
s(S'37.859904'
p474
S'-122.285026'
p475
tp476
g24
s(S'37.827079'
p477
S'-122.211325'
p478
tp479
g164
s(S'37.813814'
p480
S'-122.273928'
p481
tp482
S'37632'
p483
s(S'37.809317'
p484
S'-122.248887'
p485
tp486
S'93593'
p487
s(S'37.772895'
p488
S'-122.220147'
p489
tp490
g160
s(S'37.779190'
p491
S'-122.280188'
p492
tp493
S'57562'
p494
s(S'37.795827'
p495
S'-122.172057'
p496
tp497
g76
s(S'37.859454'
p498
S'-122.275920'
p499
tp500
g256
s(S'37.834723'
p501
S'-122.220716'
p502
tp503
g100
s(S'37.721184'
p504
S'-122.175187'
p505
tp506
g390
s(S'37.821908'
p507
S'-122.254293'
p508
tp509
S'80861'
p510
s(S'37.744116'
p511
S'-122.189130'
p512
tp513
g123
s(S'37.761203'
p514
S'-122.171488'
p515
tp516
S'51216'
p517
s(S'37.757381'
p518
S'-122.182016'
p519
tp520
g308
s(S'37.857656'
p521
S'-122.277627'
p522
tp523
g256
s(S'37.856532'
p524
S'-122.294700'
p525
tp526
g244
s(S'37.738945'
p527
S'-122.196528'
p528
tp529
g123
s(S'37.829552'
p530
S'-122.285310'
p531
tp532
g54
s(S'37.829102'
p533
S'-122.268521'
p534
tp535
g8
s(S'37.853609'
p536
S'-122.213886'
p537
tp538
g175
s(S'37.848887'
p539
S'-122.242911'
p540
tp541
g20
s(S'37.789532'
p542
S'-122.225838'
p543
tp544
S'56209'
p545
s(S'37.857881'
p546
S'-122.214171'
p547
tp548
g32
s(S'37.844166'
p549
S'-122.252871'
p550
tp551
g274
s(S'37.775817'
p552
S'-122.224130'
p553
tp554
g160
s(S'37.814938'
p555
S'-122.246041'
p556
tp557
g252
s(S'37.838320'
p558
S'-122.191976'
p559
tp560
g164
s(S'37.802347'
p561
S'-122.176325'
p562
tp563
g69
s(S'37.724781'
p564
S'-122.182585'
p565
tp566
g390
s(S'37.832475'
p567
S'-122.219008'
p568
tp569
g291
s(S'37.801898'
p570
S'-122.187992'
p571
tp572
g69
s(S'37.860803'
p573
S'-122.250310'
p574
tp575
g222
s(S'37.852709'
p576
S'-122.246041'
p577
tp578
g138
s(S'37.818760'
p579
S'-122.233805'
p580
tp581
g96
s(S'37.799200'
p582
S'-122.268806'
p583
tp584
S'38592'
p585
s(S'37.774693'
p586
S'-122.233521'
p587
tp588
g160
s(S'37.808418'
p589
S'-122.269944'
p590
tp591
S'51819'
p592
s(S'37.845965'
p593
S'-122.293847'
p594
tp595
S'110666'
p596
s(S'37.820783'
p597
S'-122.270798'
p598
tp599
g483
s(S'37.846189'
p600
S'-122.284741'
p601
tp602
g408
s(S'37.752435'
p603
S'-122.176610'
p604
tp605
S'40057'
p606
s(S'37.804596'
p607
S'-122.233805'
p608
tp609
g12
s(S'37.820334'
p610
S'-122.249456'
p611
tp612
S'83921'
p613
s(S'37.866424'
p614
S'-122.292424'
p615
tp616
S'71442'
p617
s(S'37.779864'
p618
S'-122.170634'
p619
tp620
g76
s(S'37.771546'
p621
S'-122.195959'
p622
tp623
S'39402'
p624
s(S'37.854733'
p625
S'-122.211041'
p626
tp627
g175
s(S'37.825955'
p628
S'-122.289863'
p629
tp630
g226
s(S'37.824156'
p631
S'-122.267668'
p632
tp633
g375
s(S'37.844391'
p634
S'-122.292709'
p635
tp636
g596
s(S'37.772220'
p637
S'-122.168927'
p638
tp639
S'85677'
p640
s(S'37.811790'
p641
S'-122.229822'
p642
tp643
g295
s(S'37.733549'
p644
S'-122.205634'
p645
tp646
g123
s(S'37.757156'
p647
S'-122.176610'
p648
tp649
g308
s(S'37.824381'
p650
S'-122.250025'
p651
tp652
S'98650'
p653
s(S'37.778291'
p654
S'-122.291286'
p655
tp656
g494
s(S'37.841018'
p657
S'-122.314050'
p658
tp659
g80
s(S'37.866424'
p660
S'-122.230960'
p661
tp662
g32
s(S'37.820109'
p663
S'-122.195675'
p664
tp665
g84
s(S'37.715338'
p666
S'-122.189984'
p667
tp668
g108
s(S'37.761428'
p669
S'-122.203358'
p670
tp671
g179
s(S'37.846414'
p672
S'-122.266814'
p673
tp674
S'81219'
p675
s(S'37.869122'
p676
S'-122.272505'
p677
tp678
S'44244'
p679
s(S'37.845065'
p680
S'-122.213886'
p681
tp682
g175
s(S'37.801448'
p683
S'-122.175187'
p684
tp685
g69
s(S'37.798975'
p686
S'-122.281611'
p687
tp688
S'140165'
p689
s(S'37.806844'
p690
S'-122.213317'
p691
tp692
S'93415'
p693
s(S'37.767948'
p694
S'-122.201651'
p695
tp696
g624
s(S'37.843491'
p697
S'-122.282465'
p698
tp699
g408
s(S'37.837871'
p700
S'-122.217017'
p701
tp702
g175
s(S'37.778515'
p703
S'-122.168642'
p704
tp705
g76
s(S'37.803022'
p706
S'-122.176894'
p707
tp708
g69
s(S'37.767049'
p709
S'-122.169211'
p710
tp711
g517
s(S'37.784586'
p712
S'-122.232383'
p713
tp714
g346
s(S'37.791331'
p715
S'-122.215025'
p716
tp717
S'54560'
p718
s(S'37.762777'
p719
S'-122.204212'
p720
tp721
g92
s(S'37.810666'
p722
S'-122.232383'
p723
tp724
g295
s(S'37.831800'
p725
S'-122.215025'
p726
tp727
g164
s(S'37.800099'
p728
S'-122.198520'
p729
tp730
g460
s(S'37.827978'
p731
S'-122.274497'
p732
tp733
g8
s(S'37.759854'
p734
S'-122.183439'
p735
tp736
g308
s(S'37.806394'
p737
S'-122.271936'
p738
tp739
g592
s(S'37.838770'
p740
S'-122.258562'
p741
tp742
g274
s(S'37.838995'
p743
S'-122.222992'
p744
tp745
g100
s(S'37.787509'
p746
S'-122.168357'
p747
tp748
g76
s(S'37.754908'
p749
S'-122.171488'
p750
tp751
S'45579'
p752
s(S'37.818086'
p753
S'-122.267098'
p754
tp755
g375
s(S'37.844616'
p756
S'-122.236936'
p757
tp758
g20
s(S'37.769747'
p759
S'-122.192829'
p760
tp761
g146
s(S'37.817411'
p762
S'-122.254009'
p763
tp764
S'75966'
p765
s(S'37.824606'
p766
S'-122.206488'
p767
tp768
g164
s(S'37.786834'
p769
S'-122.201935'
p770
tp771
g88
s(S'37.830226'
p772
S'-122.199659'
p773
tp774
g164
s(S'37.860803'
p775
S'-122.209334'
p776
tp777
S'225315'
p778
s(S'37.862602'
p779
S'-122.248887'
p780
tp781
g222
s(S'37.871146'
p782
S'-122.223846'
p783
tp784
g32
s(S'37.780539'
p785
S'-122.283034'
p786
tp787
g28
s(S'37.848662'
p788
S'-122.232383'
p789
tp790
g20
s(S'37.828877'
p791
S'-122.210472'
p792
tp793
g164
s(S'37.803921'
p794
S'-122.232952'
p795
tp796
S'65410'
p797
s(S'37.795602'
p798
S'-122.215309'
p799
tp800
S'59313'
p801
s(S'37.862152'
p802
S'-122.280757'
p803
tp804
g256
s(S'37.779640'
p805
S'-122.294131'
p806
tp807
g28
s(S'37.821008'
p808
S'-122.199374'
p809
tp810
g84
s(S'37.820109'
p811
S'-122.281895'
p812
tp813
g16
s(S'37.760979'
p814
S'-122.159821'
p815
tp816
S'68495'
p817
s(S'37.768173'
p818
S'-122.191691'
p819
tp820
g146
s(S'37.809542'
p821
S'-122.191406'
p822
tp823
g69
s(S'37.852709'
p824
S'-122.281326'
p825
tp826
g397
s(S'37.799200'
p827
S'-122.286448'
p828
tp829
g689
s(S'37.772670'
p830
S'-122.207626'
p831
tp832
S'49741'
p833
s(S'37.843267'
p834
S'-122.254578'
p835
tp836
g274
s(S'37.804821'
p837
S'-122.234090'
p838
tp839
g12
s(S'37.835397'
p840
S'-122.259131'
p841
tp842
g171
s(S'37.816961'
p843
S'-122.248602'
p844
tp845
g613
s(S'37.771995'
p846
S'-122.214171'
p847
tp848
g92
s(S'37.840569'
p849
S'-122.262546'
p850
tp851
g274
s(S'37.821233'
p852
S'-122.257708'
p853
tp854
g215
s(S'37.836297'
p855
S'-122.217586'
p856
tp857
g175
s(S'37.785485'
p858
S'-122.193114'
p859
tp860
g58
s(S'37.805270'
p861
S'-122.202789'
p862
tp863
g460
s(S'37.736922'
p864
S'-122.192829'
p865
tp866
g123
s(S'37.776267'
p867
S'-122.183723'
p868
tp869
g146
s(S'37.814938'
p870
S'-122.201651'
p871
tp872
g84
s(S'37.750187'
p873
S'-122.186284'
p874
tp875
g606
s(S'37.862152'
p876
S'-122.281042'
p877
tp878
g256
s(S'37.827978'
p879
S'-122.209618'
p880
tp881
g164
s(S'37.714664'
p882
S'-122.213602'
p883
tp884
g123
s(S'37.858780'
p885
S'-122.273074'
p886
tp887
g256
s(S'37.858330'
p888
S'-122.253155'
p889
tp890
g222
s(S'37.836746'
p891
S'-122.293562'
p892
tp893
S'101933'
p894
s(S'37.776042'
p895
S'-122.284172'
p896
tp897
g494
s(S'37.794928'
p898
S'-122.275635'
p899
tp900
S'170383'
p901
s(S'37.779864'
p902
S'-122.280757'
p903
tp904
g28
s(S'37.756707'
p905
S'-122.193398'
p906
tp907
g179
s(S'37.830451'
p908
S'-122.191122'
p909
tp910
g84
s(S'37.834498'
p911
S'-122.292993'
p912
tp913
g894
s(S'37.787059'
p914
S'-122.198805'
p915
tp916
g88
s(S'37.809992'
p917
S'-122.248033'
p918
tp919
g487
s(S'37.867998'
p920
S'-122.288156'
p921
tp922
S'75759'
p923
s(S'37.857206'
p924
S'-122.247464'
p925
tp926
g138
s(S'37.792905'
p927
S'-122.158113'
p928
tp929
g76
s(S'37.749512'
p930
S'-122.185431'
p931
tp932
g606
s(S'37.772445'
p933
S'-122.228114'
p934
tp935
g160
s(S'37.720059'
p936
S'-122.177748'
p937
tp938
g390
s(S'37.860803'
p939
S'-122.266814'
p940
tp941
S'71805'
p942
s(S'37.869797'
p943
S'-122.275066'
p944
tp945
S'106714'
p946
s(S'37.812690'
p947
S'-122.243765'
p948
tp949
g252
s(S'37.792230'
p950
S'-122.223846'
p951
tp952
g328
s(S'37.794254'
p953
S'-122.182585'
p954
tp955
g248
s(S'37.728603'
p956
S'-122.186854'
p957
tp958
g123
s(S'37.830002'
p959
S'-122.276204'
p960
tp961
g8
s(S'37.830451'
p962
S'-122.256001'
p963
tp964
g171
s(S'37.849787'
p965
S'-122.234659'
p966
tp967
g20
s(S'37.845740'
p968
S'-122.276489'
p969
tp970
g237
s(S'37.842142'
p971
S'-122.283318'
p972
tp973
g408
s(S'37.851136'
p974
S'-122.266814'
p975
tp976
g675
s(S'37.842142'
p977
S'-122.224984'
p978
tp979
g175
s(S'37.767724'
p980
S'-122.219578'
p981
tp982
g92
s(S'37.857431'
p983
S'-122.222423'
p984
tp985
g32
s(S'37.781888'
p986
S'-122.289863'
p987
tp988
g28
s(S'37.775368'
p989
S'-122.204212'
p990
tp991
g142
s(S'37.841693'
p992
S'-122.217870'
p993
tp994
g175
s(S'37.808643'
p995
S'-122.274212'
p996
tp997
g592
s(S'37.824606'
p998
S'-122.258846'
p999
tp1000
g171
s(S'37.818086'
p1001
S'-122.227545'
p1002
tp1003
g96
s(S'37.744791'
p1004
S'-122.189984'
p1005
tp1006
g123
s(S'37.827304'
p1007
S'-122.275351'
p1008
tp1009
g8
s(S'37.838770'
p1010
S'-122.287871'
p1011
tp1012
g596
s(S'37.878565'
p1013
S'-122.268521'
p1014
tp1015
S'95103'
p1016
s(S'37.840119'
p1017
S'-122.267383'
p1018
tp1019
g237
s(S'37.827079'
p1020
S'-122.206488'
p1021
tp1022
g164
s(S'37.822807'
p1023
S'-122.247180'
p1024
tp1025
S'241961'
p1026
s(S'37.832475'
p1027
S'-122.253724'
p1028
tp1029
g171
s(S'37.863501'
p1030
S'-122.271367'
p1031
tp1032
g679
s(S'37.822807'
p1033
S'-122.246610'
p1034
tp1035
g1026
s(S'37.854283'
p1036
S'-122.260838'
p1037
tp1038
S'110223'
p1039
s(S'37.823931'
p1040
S'-122.271936'
p1041
tp1042
g483
s(S'37.877216'
p1043
S'-122.278196'
p1044
tp1045
S'79349'
p1046
s(S'37.858105'
p1047
S'-122.280188'
p1048
tp1049
g24
s(S'37.828428'
p1050
S'-122.260269'
p1051
tp1052
g171
s(S'37.862152'
p1053
S'-122.259700'
p1054
tp1055
S'61092'
p1056
s(S'37.826854'
p1057
S'-122.207911'
p1058
tp1059
g164
s(S'37.775593'
p1060
S'-122.214456'
p1061
tp1062
g190
s(S'37.742543'
p1063
S'-122.202220'
p1064
tp1065
g123
s(S'37.816512'
p1066
S'-122.196813'
p1067
tp1068
g84
s(S'37.804146'
p1069
S'-122.167788'
p1070
tp1071
g76
s(S'37.835173'
p1072
S'-122.220147'
p1073
tp1074
g100
s(S'37.763452'
p1075
S'-122.203073'
p1076
tp1077
g92
s(S'37.798975'
p1078
S'-122.275351'
p1079
tp1080
g207
s(S'37.801448'
p1081
S'-122.220716'
p1082
tp1083
g62
s(S'37.810891'
p1084
S'-122.250025'
p1085
tp1086
g487
s(S'37.845290'
p1087
S'-122.238927'
p1088
tp1089
g20
s(S'37.825730'
p1090
S'-122.267383'
p1091
tp1092
g116
s(S'37.865300'
p1093
S'-122.230106'
p1094
tp1095
g32
s(S'37.834723'
p1096
S'-122.291570'
p1097
tp1098
g894
s(S'37.781888'
p1099
S'-122.291286'
p1100
tp1101
g28
s(S'37.798750'
p1102
S'-122.289009'
p1103
tp1104
g689
s(S'37.837871'
p1105
S'-122.219008'
p1106
tp1107
g175
s(S'37.794703'
p1108
S'-122.215594'
p1109
tp1110
g801
s(S'37.784811'
p1111
S'-122.220147'
p1112
tp1113
g718
s(S'37.854733'
p1114
S'-122.274782'
p1115
tp1116
g256
s(S'37.802797'
p1117
S'-122.231813'
p1118
tp1119
g797
s(S'37.795602'
p1120
S'-122.183723'
p1121
tp1122
g248
s(S'37.848662'
p1123
S'-122.201935'
p1124
tp1125
g175
s(S'37.731301'
p1126
S'-122.207626'
p1127
tp1128
g123
s(S'37.826629'
p1129
S'-122.265107'
p1130
tp1131
g116
s(S'37.814263'
p1132
S'-122.257993'
p1133
tp1134
g765
s(S'37.779864'
p1135
S'-122.179455'
p1136
tp1137
g58
s(S'37.815612'
p1138
S'-122.216732'
p1139
tp1140
g96
s(S'37.866424'
p1141
S'-122.277058'
p1142
tp1143
g946
s(S'37.790207'
p1144
S'-122.185715'
p1145
tp1146
g453
s(S'37.839220'
p1147
S'-122.303806'
p1148
tp1149
g80
s(S'37.793129'
p1150
S'-122.201935'
p1151
tp1152
g464
s(S'37.790656'
p1153
S'-122.275066'
p1154
tp1155
g211
s(S'37.815837'
p1156
S'-122.239212'
p1157
tp1158
g252
s(S'37.843042'
p1159
S'-122.243480'
p1160
tp1161
g20
s(S'37.834723'
p1162
S'-122.256285'
p1163
tp1164
g171
s(S'37.776492'
p1165
S'-122.287587'
p1166
tp1167
g494
s(S'37.733324'
p1168
S'-122.212748'
p1169
tp1170
g123
s(S'37.749737'
p1171
S'-122.203358'
p1172
tp1173
g123
s(S'37.784811'
p1174
S'-122.189415'
p1175
tp1176
g248
s(S'37.866424'
p1177
S'-122.221285'
p1178
tp1179
g32
s(S'37.861927'
p1180
S'-122.281042'
p1181
tp1182
g256
s(S'37.773569'
p1183
S'-122.288156'
p1184
tp1185
S'91955'
p1186
s(S'37.854508'
p1187
S'-122.254863'
p1188
tp1189
g1039
s(S'37.863052'
p1190
S'-122.260269'
p1191
tp1192
g1056
s(S'37.741194'
p1193
S'-122.192260'
p1194
tp1195
g123
s(S'37.787284'
p1196
S'-122.207057'
p1197
tp1198
g88
s(S'37.777841'
p1199
S'-122.201935'
p1200
tp1201
g142
s(S'37.803247'
p1202
S'-122.211895'
p1203
tp1204
g693
s(S'37.798525'
p1205
S'-122.191122'
p1206
tp1207
g453
s(S'37.768173'
p1208
S'-122.220716'
p1209
tp1210
g160
s(S'37.806844'
p1211
S'-122.268237'
p1212
tp1213
g428
s(S'37.827079'
p1214
S'-122.255432'
p1215
tp1216
g510
s(S'37.794703'
p1217
S'-122.170918'
p1218
tp1219
g76
s(S'37.794029'
p1220
S'-122.265391'
p1221
tp1222
g153
s(S'37.851136'
p1223
S'-122.232667'
p1224
tp1225
g175
s(S'37.800998'
p1226
S'-122.228968'
p1227
tp1228
g382
s(S'37.834948'
p1229
S'-122.279334'
p1230
tp1231
g54
s(S'37.720734'
p1232
S'-122.178317'
p1233
tp1234
g390
s(S'37.817861'
p1235
S'-122.269375'
p1236
tp1237
g375
s(S'37.805045'
p1238
S'-122.250025'
p1239
tp1240
g12
s(S'37.816961'
p1241
S'-122.216732'
p1242
tp1243
g96
s(S'37.825730'
p1244
S'-122.273928'
p1245
tp1246
g483
s(S'37.803472'
p1247
S'-122.285026'
p1248
tp1249
S'34108'
p1250
s(S'37.849562'
p1251
S'-122.240350'
p1252
tp1253
g20
s(S'37.757606'
p1254
S'-122.211610'
p1255
tp1256
g123
s(S'37.849787'
p1257
S'-122.203358'
p1258
tp1259
g175
s(S'37.841018'
p1260
S'-122.219008'
p1261
tp1262
g175
s(S'37.810891'
p1263
S'-122.250879'
p1264
tp1265
g487
s(S'37.853384'
p1266
S'-122.222423'
p1267
tp1268
g175
s(S'37.851360'
p1269
S'-122.272221'
p1270
tp1271
g230
s(S'37.879239'
p1272
S'-122.276489'
p1273
tp1274
g36
s(S'37.821908'
p1275
S'-122.187138'
p1276
tp1277
g84
s(S'37.826404'
p1278
S'-122.270513'
p1279
tp1280
g8
s(S'37.854733'
p1281
S'-122.246610'
p1282
tp1283
g138
s(S'37.816287'
p1284
S'-122.216447'
p1285
tp1286
g96
s(S'37.794254'
p1287
S'-122.272790'
p1288
tp1289
g901
s(S'37.860803'
p1290
S'-122.222139'
p1291
tp1292
g32
s(S'37.779415'
p1293
S'-122.291286'
p1294
tp1295
g494
s(S'37.839894'
p1296
S'-122.201651'
p1297
tp1298
g164
s(S'37.861703'
p1299
S'-122.225269'
p1300
tp1301
g32
s(S'37.777166'
p1302
S'-122.214456'
p1303
tp1304
S'58765'
p1305
s(S'37.848662'
p1306
S'-122.252302'
p1307
tp1308
g104
s(S'37.848213'
p1309
S'-122.238927'
p1310
tp1311
g20
s(S'37.786160'
p1312
S'-122.166650'
p1313
tp1314
g76
s(S'37.845065'
p1315
S'-122.289009'
p1316
tp1317
g596
s(S'37.750187'
p1318
S'-122.191406'
p1319
tp1320
g606
s(S'37.818310'
p1321
S'-122.203927'
p1322
tp1323
g84
s(S'37.808418'
p1324
S'-122.279619'
p1325
tp1326
g386
s(S'37.819435'
p1327
S'-122.257708'
p1328
tp1329
g215
s(S'37.869797'
p1330
S'-122.272790'
p1331
tp1332
g679
s(S'37.816737'
p1333
S'-122.234944'
p1334
tp1335
g252
s(S'37.828877'
p1336
S'-122.264537'
p1337
tp1338
g116
s(S'37.836522'
p1339
S'-122.199090'
p1340
tp1341
g164
s(S'37.858555'
p1342
S'-122.232383'
p1343
tp1344
g32
s(S'37.758505'
p1345
S'-122.188276'
p1346
tp1347
g179
s(S'37.780539'
p1348
S'-122.290717'
p1349
tp1350
g28
s(S'37.875642'
p1351
S'-122.268806'
p1352
tp1353
S'71848'
p1354
s(S'37.800099'
p1355
S'-122.193683'
p1356
tp1357
g4
s(S'37.772220'
p1358
S'-122.207342'
p1359
tp1360
g833
s(S'37.827978'
p1361
S'-122.187138'
p1362
tp1363
g84
s(S'37.800324'
p1364
S'-122.190268'
p1365
tp1366
g4
s(S'37.796951'
p1367
S'-122.213602'
p1368
tp1369
g801
s(S'37.838320'
p1370
S'-122.195390'
p1371
tp1372
g164
s(S'37.754908'
p1373
S'-122.194537'
p1374
tp1375
g179
s(S'37.850461'
p1376
S'-122.266814'
p1377
tp1378
g675
s(S'37.800774'
p1379
S'-122.272790'
p1380
tp1381
g585
s(S'37.777166'
p1382
S'-122.286448'
p1383
tp1384
g494
s(S'37.778740'
p1385
S'-122.213886'
p1386
tp1387
g1305
s(S'37.807519'
p1388
S'-122.255716'
p1389
tp1390
S'61230'
p1391
s(S'37.776042'
p1392
S'-122.190837'
p1393
tp1394
g40
s(S'37.821908'
p1395
S'-122.195390'
p1396
tp1397
g84
s(S'37.806394'
p1398
S'-122.240066'
p1399
tp1400
g12
s(S'37.846414'
p1401
S'-122.246041'
p1402
tp1403
g274
s(S'37.866199'
p1404
S'-122.256854'
p1405
tp1406
S'35190'
p1407
s(S'37.801898'
p1408
S'-122.271082'
p1409
tp1410
g585
s(S'37.807294'
p1411
S'-122.269660'
p1412
tp1413
g592
s(S'37.837646'
p1414
S'-122.288440'
p1415
tp1416
g596
s(S'37.872944'
p1417
S'-122.278765'
p1418
tp1419
g1046
s(S'37.823706'
p1420
S'-122.192829'
p1421
tp1422
g84
s(S'37.825055'
p1423
S'-122.268237'
p1424
tp1425
g116
s(S'37.773794'
p1426
S'-122.226691'
p1427
tp1428
g160
s(S'37.821908'
p1429
S'-122.287587'
p1430
tp1431
g226
s(S'37.810441'
p1432
S'-122.264253'
p1433
tp1434
g428
s(S'37.845290'
p1435
S'-122.243480'
p1436
tp1437
g20
s(S'37.748838'
p1438
S'-122.178601'
p1439
tp1440
S'57700'
p1441
s(S'37.833599'
p1442
S'-122.294985'
p1443
tp1444
g80
s(S'37.747714'
p1445
S'-122.187992'
p1446
tp1447
g1441
s(S'37.771321'
p1448
S'-122.197098'
p1449
tp1450
g624
s(S'37.863052'
p1451
S'-122.251448'
p1452
tp1453
g222
s(S'37.769747'
p1454
S'-122.200797'
p1455
tp1456
g624
s(S'37.820559'
p1457
S'-122.281042'
p1458
tp1459
g404
s(S'37.811116'
p1460
S'-122.250025'
p1461
tp1462
g487
s(S'37.815388'
p1463
S'-122.246895'
p1464
tp1465
g613
s(S'37.781888'
p1466
S'-122.275066'
p1467
tp1468
g211
s(S'37.788183'
p1469
S'-122.202220'
p1470
tp1471
g88
s(S'37.839669'
p1472
S'-122.281611'
p1473
tp1474
S'85046'
p1475
s(S'37.841468'
p1476
S'-122.269375'
p1477
tp1478
g237
s(S'37.857431'
p1479
S'-122.233236'
p1480
tp1481
g32
s(S'37.779415'
p1482
S'-122.222423'
p1483
tp1484
g190
s(S'37.836971'
p1485
S'-122.203642'
p1486
tp1487
g164
s(S'37.826404'
p1488
S'-122.252302'
p1489
tp1490
g653
s(S'37.752885'
p1491
S'-122.164658'
p1492
tp1493
g183
s(S'37.769522'
p1494
S'-122.180024'
p1495
tp1496
g339
s(S'37.782562'
p1497
S'-122.174049'
p1498
tp1499
g76
s(S'37.843716'
p1500
S'-122.253155'
p1501
tp1502
g274
s(S'37.859005'
p1503
S'-122.237505'
p1504
tp1505
g32
s(S'37.839220'
p1506
S'-122.193683'
p1507
tp1508
g164
s(S'37.826179'
p1509
S'-122.281326'
p1510
tp1511
g404
s(S'37.781438'
p1512
S'-122.171772'
p1513
tp1514
g76
s(S'37.799425'
p1515
S'-122.269375'
p1516
tp1517
g585
s(S'37.847763'
p1518
S'-122.200512'
p1519
tp1520
g778
s(S'37.752210'
p1521
S'-122.176325'
p1522
tp1523
g606
s(S'37.754459'
p1524
S'-122.204781'
p1525
tp1526
g92
s(S'37.862602'
p1527
S'-122.223561'
p1528
tp1529
g32
s(S'37.827079'
p1530
S'-122.208195'
p1531
tp1532
g164
s(S'37.814938'
p1533
S'-122.237789'
p1534
tp1535
g252
s(S'37.830002'
p1536
S'-122.286733'
p1537
tp1538
g54
s(S'37.797176'
p1539
S'-122.281895'
p1540
tp1541
g689
s(S'37.852035'
p1542
S'-122.271936'
p1543
tp1544
g230
s(S'37.850461'
p1545
S'-122.281895'
p1546
tp1547
g397
s(S'37.863501'
p1548
S'-122.291570'
p1549
tp1550
g617
s(S'37.856307'
p1551
S'-122.240635'
p1552
tp1553
g138
s(S'37.794928'
p1554
S'-122.228114'
p1555
tp1556
g382
s(S'37.809542'
p1557
S'-122.189699'
p1558
tp1559
g69
s(S'37.831351'
p1560
S'-122.277912'
p1561
tp1562
g54
s(S'37.803247'
p1563
S'-122.227261'
p1564
tp1565
g62
s(S'37.849787'
p1566
S'-122.239497'
p1567
tp1568
g20
s(S'37.825280'
p1569
S'-122.214456'
p1570
tp1571
g291
s(S'37.831126'
p1572
S'-122.246326'
p1573
tp1574
g127
s(S'37.788858'
p1575
S'-122.212464'
p1576
tp1577
g718
s(S'37.783237'
p1578
S'-122.202789'
p1579
tp1580
g88
s(S'37.789532'
p1581
S'-122.276773'
p1582
tp1583
g28
s(S'37.842142'
p1584
S'-122.214456'
p1585
tp1586
g175
s(S'37.812015'
p1587
S'-122.209618'
p1588
tp1589
g263
s(S'37.810216'
p1590
S'-122.216447'
p1591
tp1592
g62
s(S'37.780314'
p1593
S'-122.190268'
p1594
tp1595
g58
s(S'37.809767'
p1596
S'-122.274497'
p1597
tp1598
g386
s(S'37.855183'
p1599
S'-122.220431'
p1600
tp1601
g175
s(S'37.821233'
p1602
S'-122.188276'
p1603
tp1604
g84
s(S'37.824381'
p1605
S'-122.188276'
p1606
tp1607
g84
s(S'37.779190'
p1608
S'-122.163805'
p1609
tp1610
g76
s(S'37.720734'
p1611
S'-122.192545'
p1612
tp1613
g123
s(S'37.815612'
p1614
S'-122.230960'
p1615
tp1616
g295
s(S'37.859454'
p1617
S'-122.269375'
p1618
tp1619
g942
s(S'37.836522'
p1620
S'-122.251163'
p1621
tp1622
g100
s(S'37.733100'
p1623
S'-122.188276'
p1624
tp1625
g123
s(S'37.738271'
p1626
S'-122.199659'
p1627
tp1628
g123
s(S'37.788633'
p1629
S'-122.197382'
p1630
tp1631
g88
s(S'37.819884'
p1632
S'-122.199943'
p1633
tp1634
g84
s(S'37.767049'
p1635
S'-122.212748'
p1636
tp1637
g92
s(S'37.797851'
p1638
S'-122.201651'
p1639
tp1640
g460
s(S'37.831575'
p1641
S'-122.215878'
p1642
tp1643
g291
s(S'37.856082'
p1644
S'-122.292424'
p1645
tp1646
g244
s(S'37.847089'
p1647
S'-122.260838'
p1648
tp1649
S'118159'
p1650
s(S'37.716462'
p1651
S'-122.187138'
p1652
tp1653
g108
s(S'37.834948'
p1654
S'-122.189130'
p1655
tp1656
g84
s(S'37.791106'
p1657
S'-122.215878'
p1658
tp1659
g718
s(S'37.781213'
p1660
S'-122.200228'
p1661
tp1662
g142
s(S'37.746365'
p1663
S'-122.174049'
p1664
tp1665
g1441
s(S'37.798750'
p1666
S'-122.275920'
p1667
tp1668
g207
s(S'37.715563'
p1669
S'-122.215025'
p1670
tp1671
g123
s(S'37.776042'
p1672
S'-122.188276'
p1673
tp1674
g40
s(S'37.816961'
p1675
S'-122.190553'
p1676
tp1677
g84
s(S'37.798750'
p1678
S'-122.188845'
p1679
tp1680
g453
s(S'37.796727'
p1681
S'-122.213886'
p1682
tp1683
g801
s(S'37.722308'
p1684
S'-122.215025'
p1685
tp1686
g123
s(S'37.773569'
p1687
S'-122.200512'
p1688
tp1689
g142
s(S'37.801673'
p1690
S'-122.230675'
p1691
tp1692
g382
s(S'37.875192'
p1693
S'-122.271936'
p1694
tp1695
g1354
s(S'37.777616'
p1696
S'-122.210187'
p1697
tp1698
g1305
s(S'37.800099'
p1699
S'-122.226976'
p1700
tp1701
g382
s(S'37.816961'
p1702
S'-122.236366'
p1703
tp1704
g252
s(S'37.745016'
p1705
S'-122.191122'
p1706
tp1707
g123
s(S'37.826854'
p1708
S'-122.278481'
p1709
tp1710
g8
s(S'37.783911'
p1711
S'-122.233236'
p1712
tp1713
g346
s(S'37.772445'
p1714
S'-122.184008'
p1715
tp1716
g146
s(S'37.803921'
p1717
S'-122.203358'
p1718
tp1719
g460
s(S'37.825280'
p1720
S'-122.277627'
p1721
tp1722
g483
s(S'37.750412'
p1723
S'-122.191122'
p1724
tp1725
g112
s(S'37.769747'
p1726
S'-122.222139'
p1727
tp1728
g160
s(S'37.780314'
p1729
S'-122.206203'
p1730
tp1731
g142
s(S'37.797851'
p1732
S'-122.213317'
p1733
tp1734
g801
s(S'37.809767'
p1735
S'-122.190268'
p1736
tp1737
g84
s(S'37.784811'
p1738
S'-122.181447'
p1739
tp1740
g248
s(S'37.796951'
p1741
S'-122.172910'
p1742
tp1743
g69
s(S'37.867548'
p1744
S'-122.220147'
p1745
tp1746
g32
s(S'37.767724'
p1747
S'-122.157829'
p1748
tp1749
g817
s(S'37.773119'
p1750
S'-122.188276'
p1751
tp1752
g40
s(S'37.723207'
p1753
S'-122.200797'
p1754
tp1755
g123
s(S'37.803472'
p1756
S'-122.194252'
p1757
tp1758
g460
s(S'37.764126'
p1759
S'-122.160674'
p1760
tp1761
g817
s(S'37.821233'
p1762
S'-122.201366'
p1763
tp1764
g84
s(S'37.830901'
p1765
S'-122.256001'
p1766
tp1767
g171
s(S'37.801673'
p1768
S'-122.281895'
p1769
tp1770
S'39264'
p1771
s(S'37.796951'
p1772
S'-122.189130'
p1773
tp1774
g453
s(S'37.730402'
p1775
S'-122.188845'
p1776
tp1777
g123
s(S'37.737371'
p1778
S'-122.177748'
p1779
tp1780
S'46186'
p1781
s(S'37.787284'
p1782
S'-122.193114'
p1783
tp1784
g248
s(S'37.800998'
p1785
S'-122.225838'
p1786
tp1787
g62
s(S'37.775368'
p1788
S'-122.283034'
p1789
tp1790
g1186
s(S'37.815612'
p1791
S'-122.262830'
p1792
tp1793
g215
s(S'37.862602'
p1794
S'-122.279050'
p1795
tp1796
g946
s(S'37.789307'
p1797
S'-122.276773'
p1798
tp1799
g28
s(S'37.816512'
p1800
S'-122.221854'
p1801
tp1802
g96
s(S'37.839444'
p1803
S'-122.222423'
p1804
tp1805
g175
s(S'37.804371'
p1806
S'-122.197951'
p1807
tp1808
g460
s(S'37.805495'
p1809
S'-122.202504'
p1810
tp1811
g460
s(S'37.862602'
p1812
S'-122.218155'
p1813
tp1814
S'222994'
p1815
s(S'37.789307'
p1816
S'-122.199374'
p1817
tp1818
g88
s(S'37.812914'
p1819
S'-122.278765'
p1820
tp1821
g386
s(S'37.810216'
p1822
S'-122.262546'
p1823
tp1824
g1391
s(S'37.811565'
p1825
S'-122.215878'
p1826
tp1827
g47
s(S'37.781888'
p1828
S'-122.215309'
p1829
tp1830
g270
s(S'37.775593'
p1831
S'-122.196528'
p1832
tp1833
g40
s(S'37.790431'
p1834
S'-122.215594'
p1835
tp1836
g718
s(S'37.824606'
p1837
S'-122.289009'
p1838
tp1839
g226
s(S'37.849112'
p1840
S'-122.257139'
p1841
tp1842
g1650
s(S'37.854508'
p1843
S'-122.275920'
p1844
tp1845
g256
s(S'37.857881'
p1846
S'-122.245472'
p1847
tp1848
g138
s(S'37.771770'
p1849
S'-122.208764'
p1850
tp1851
g833
s(S'37.857656'
p1852
S'-122.282749'
p1853
tp1854
g24
s(S'37.854283'
p1855
S'-122.286448'
p1856
tp1857
g24
s(S'37.850236'
p1858
S'-122.267383'
p1859
tp1860
g675
s(S'37.826404'
p1861
S'-122.277912'
p1862
tp1863
g483
s(S'37.786834'
p1864
S'-122.226976'
p1865
tp1866
g346
s(S'37.861253'
p1867
S'-122.274212'
p1868
tp1869
g256
s(S'37.762103'
p1870
S'-122.203642'
p1871
tp1872
g179
s(S'37.804371'
p1873
S'-122.199374'
p1874
tp1875
g460
s(S'37.853609'
p1876
S'-122.281611'
p1877
tp1878
g24
s(S'37.756482'
p1879
S'-122.168927'
p1880
tp1881
g183
s(S'37.857206'
p1882
S'-122.259700'
p1883
tp1884
S'85182'
p1885
s(S'37.790881'
p1886
S'-122.184008'
p1887
tp1888
g248
s(S'37.869122'
p1889
S'-122.240919'
p1890
tp1891
g32
s(S'37.781663'
p1892
S'-122.282465'
p1893
tp1894
g28
s(S'37.772220'
p1895
S'-122.200797'
p1896
tp1897
g624
s(S'37.813814'
p1898
S'-122.245757'
p1899
tp1900
g252
s(S'37.784136'
p1901
S'-122.213033'
p1902
tp1903
g270
s(S'37.757156'
p1904
S'-122.210472'
p1905
tp1906
g92
s(S'37.830676'
p1907
S'-122.215309'
p1908
tp1909
g291
s(S'37.808418'
p1910
S'-122.237220'
p1911
tp1912
g295
s(S'37.807294'
p1913
S'-122.264822'
p1914
tp1915
g1391
s(S'37.742767'
p1916
S'-122.203642'
p1917
tp1918
g123
s(S'37.780764'
p1919
S'-122.289009'
p1920
tp1921
g28
s(S'37.809542'
p1922
S'-122.239497'
p1923
tp1924
g295
s(S'37.840119'
p1925
S'-122.263968'
p1926
tp1927
g274
s(S'37.808867'
p1928
S'-122.256285'
p1929
tp1930
g1391
s(S'37.809767'
p1931
S'-122.255432'
p1932
tp1933
g487
s(S'37.817636'
p1934
S'-122.191691'
p1935
tp1936
g84
s(S'37.731526'
p1937
S'-122.187992'
p1938
tp1939
S'44874'
p1940
s(S'37.826629'
p1941
S'-122.266245'
p1942
tp1943
g116
s(S'37.770646'
p1944
S'-122.202504'
p1945
tp1946
g833
s(S'37.752210'
p1947
S'-122.195390'
p1948
tp1949
g179
s(S'37.824830'
p1950
S'-122.193683'
p1951
tp1952
g84
s(S'37.755583'
p1953
S'-122.175187'
p1954
tp1955
g752
s(S'37.732200'
p1956
S'-122.192260'
p1957
tp1958
g123
s(S'37.858555'
p1959
S'-122.269375'
p1960
tp1961
g942
s(S'37.835173'
p1962
S'-122.265107'
p1963
tp1964
g116
s(S'37.877666'
p1965
S'-122.278481'
p1966
tp1967
g36
s(S'37.822357'
p1968
S'-122.271936'
p1969
tp1970
g483
s(S'37.790207'
p1971
S'-122.200228'
p1972
tp1973
g88
s(S'37.788183'
p1974
S'-122.222139'
p1975
tp1976
g545
s(S'37.767049'
p1977
S'-122.166366'
p1978
tp1979
g640
s(S'37.844840'
p1980
S'-122.233521'
p1981
tp1982
g20
s(S'37.836746'
p1983
S'-122.222423'
p1984
tp1985
g100
s(S'37.783686'
p1986
S'-122.201935'
p1987
tp1988
g88
s(S'37.843491'
p1989
S'-122.275635'
p1990
tp1991
g237
s(S'37.805720'
p1992
S'-122.217870'
p1993
tp1994
g62
s(S'37.843267'
p1995
S'-122.211610'
p1996
tp1997
g175
s(S'37.853834'
p1998
S'-122.259985'
p1999
tp2000
g1039
s(S'37.791780'
p2001
S'-122.228399'
p2002
tp2003
S'56657'
p2004
s(S'37.854058'
p2005
S'-122.225553'
p2006
tp2007
g32
s(S'37.829552'
p2008
S'-122.292424'
p2009
tp2010
g226
s(S'37.782562'
p2011
S'-122.236651'
p2012
tp2013
g160
s(S'37.778515'
p2014
S'-122.180309'
p2015
tp2016
g318
s(S'37.837871'
p2017
S'-122.205065'
p2018
tp2019
g164
s(S'37.809992'
p2020
S'-122.190268'
p2021
tp2022
g84
s(S'37.771546'
p2023
S'-122.279619'
p2024
tp2025
g1186
s(S'37.765475'
p2026
S'-122.175756'
p2027
tp2028
g517
s(S'37.769297'
p2029
S'-122.182016'
p2030
tp2031
g339
s(S'37.811341'
p2032
S'-122.230960'
p2033
tp2034
g295
s(S'37.772895'
p2035
S'-122.194537'
p2036
tp2037
g40
s(S'37.867998'
p2038
S'-122.219578'
p2039
tp2040
g32
s(S'37.784811'
p2041
S'-122.226407'
p2042
tp2043
g332
s(S'37.807069'
p2044
S'-122.238643'
p2045
tp2046
g12
s(S'37.823032'
p2047
S'-122.269090'
p2048
tp2049
g483
s(S'37.850461'
p2050
S'-122.270798'
p2051
tp2052
S'87042'
p2053
s(S'37.861028'
p2054
S'-122.289863'
p2055
tp2056
g244
s(S'37.842367'
p2057
S'-122.209903'
p2058
tp2059
g175
s(S'37.789982'
p2060
S'-122.230391'
p2061
tp2062
g545
s(S'37.827304'
p2063
S'-122.292709'
p2064
tp2065
g226
s(S'37.849562'
p2066
S'-122.241488'
p2067
tp2068
g20
s(S'37.859229'
p2069
S'-122.240635'
p2070
tp2071
g32
s(S'37.751761'
p2072
S'-122.187992'
p2073
tp2074
g606
s(S'37.823032'
p2075
S'-122.255432'
p2076
tp2077
g510
s(S'37.779640'
p2078
S'-122.190837'
p2079
tp2080
g40
s(S'37.784361'
p2081
S'-122.190553'
p2082
tp2083
g58
s(S'37.861703'
p2084
S'-122.264253'
p2085
tp2086
g1056
s(S'37.803921'
p2087
S'-122.263968'
p2088
tp2089
g1391
s(S'37.813814'
p2090
S'-122.247749'
p2091
tp2092
g613
s(S'37.842142'
p2093
S'-122.212464'
p2094
tp2095
g175
s(S'37.795378'
p2096
S'-122.201081'
p2097
tp2098
g4
s(S'37.836746'
p2099
S'-122.295839'
p2100
tp2101
g894
s(S'37.867548'
p2102
S'-122.265960'
p2103
tp2104
g679
s(S'37.841468'
p2105
S'-122.272221'
p2106
tp2107
g237
s(S'37.843491'
p2108
S'-122.221000'
p2109
tp2110
g175
s(S'37.752885'
p2111
S'-122.186000'
p2112
tp2113
g112
s(S'37.718036'
p2114
S'-122.205919'
p2115
tp2116
g123
s(S'37.783462'
p2117
S'-122.278196'
p2118
tp2119
g28
s(S'37.858555'
p2120
S'-122.233236'
p2121
tp2122
g32
s(S'37.808193'
p2123
S'-122.239212'
p2124
tp2125
g47
s(S'37.851810'
p2126
S'-122.276204'
p2127
tp2128
g230
s(S'37.827753'
p2129
S'-122.254293'
p2130
tp2131
g653
s(S'37.824156'
p2132
S'-122.213602'
p2133
tp2134
g291
s(S'37.723882'
p2135
S'-122.181162'
p2136
tp2137
g390
s(S'37.805045'
p2138
S'-122.233805'
p2139
tp2140
g47
s(S'37.793804'
p2141
S'-122.195390'
p2142
tp2143
g4
s(S'37.774918'
p2144
S'-122.221000'
p2145
tp2146
g160
s(S'37.758955'
p2147
S'-122.187138'
p2148
tp2149
g112
s(S'37.847089'
p2150
S'-122.261692'
p2151
tp2152
g675
s(S'37.864401'
p2153
S'-122.232667'
p2154
tp2155
g32
s(S'37.861478'
p2156
S'-122.231244'
p2157
tp2158
g32
s(S'37.800998'
p2159
S'-122.178601'
p2160
tp2161
g69
s(S'37.818310'
p2162
S'-122.270229'
p2163
tp2164
g483
s(S'37.846189'
p2165
S'-122.283034'
p2166
tp2167
g408
s(S'37.848887'
p2168
S'-122.232098'
p2169
tp2170
g20
s(S'37.847538'
p2171
S'-122.241488'
p2172
tp2173
g20
s(S'37.759405'
p2174
S'-122.194821'
p2175
tp2176
g179
s(S'37.755583'
p2177
S'-122.158967'
p2178
tp2179
g817
s(S'37.824606'
p2180
S'-122.204781'
p2181
tp2182
g164
s(S'37.817636'
p2183
S'-122.248033'
p2184
tp2185
g613
s(S'37.818985'
p2186
S'-122.249741'
p2187
tp2188
g613
s(S'37.867099'
p2189
S'-122.264822'
p2190
tp2191
g1407
s(S'37.803921'
p2192
S'-122.209049'
p2193
tp2194
g460
s(S'37.836746'
p2195
S'-122.296408'
p2196
tp2197
g80
s(S'37.847089'
p2198
S'-122.286164'
p2199
tp2200
g408
s(S'37.773119'
p2201
S'-122.203073'
p2202
tp2203
g142
s(S'37.827753'
p2204
S'-122.267098'
p2205
tp2206
g116
s(S'37.736247'
p2207
S'-122.213602'
p2208
tp2209
g123
s(S'37.852709'
p2210
S'-122.226976'
p2211
tp2212
g32
s(S'37.845290'
p2213
S'-122.298400'
p2214
tp2215
g80
s(S'37.732875'
p2216
S'-122.213886'
p2217
tp2218
g123
s(S'37.827079'
p2219
S'-122.298115'
p2220
tp2221
g226
s(S'37.823931'
p2222
S'-122.282180'
p2223
tp2224
g404
s(S'37.799874'
p2225
S'-122.176040'
p2226
tp2227
g69
s(S'37.794928'
p2228
S'-122.180878'
p2229
tp2230
g76
s(S'37.861478'
p2231
S'-122.258277'
p2232
tp2233
g1885
s(S'37.812690'
p2234
S'-122.227830'
p2235
tp2236
g295
s(S'37.798525'
p2237
S'-122.186000'
p2238
tp2239
g453
s(S'37.809767'
p2240
S'-122.230391'
p2241
tp2242
g295
s(S'37.836297'
p2243
S'-122.194821'
p2244
tp2245
g164
s(S'37.863276'
p2246
S'-122.262830'
p2247
tp2248
g1056
s(S'37.792005'
p2249
S'-122.212748'
p2250
tp2251
g464
s(S'37.784586'
p2252
S'-122.285026'
p2253
tp2254
g28
s(S'37.771770'
p2255
S'-122.188561'
p2256
tp2257
g146
s(S'37.795378'
p2258
S'-122.208480'
p2259
tp2260
g464
s(S'37.815163'
p2261
S'-122.254293'
p2262
tp2263
S'74158'
p2264
s(S'37.840344'
p2265
S'-122.198520'
p2266
tp2267
g164
s(S'37.782787'
p2268
S'-122.197951'
p2269
tp2270
g58
s(S'37.854508'
p2271
S'-122.272221'
p2272
tp2273
g256
s(S'37.849337'
p2274
S'-122.244619'
p2275
tp2276
g104
s(S'37.804596'
p2277
S'-122.183439'
p2278
tp2279
g69
s(S'37.865525'
p2280
S'-122.281611'
p2281
tp2282
g923
s(S'37.822357'
p2283
S'-122.212748'
p2284
tp2285
g291
s(S'37.803247'
p2286
S'-122.219578'
p2287
tp2288
g62
s(S'37.780314'
p2289
S'-122.210187'
p2290
tp2291
g1305
s(S'37.834048'
p2292
S'-122.218155'
p2293
tp2294
g100
s(S'37.802572'
p2295
S'-122.214456'
p2296
tp2297
g693
s(S'37.776492'
p2298
S'-122.171772'
p2299
tp2300
g318
s(S'37.785935'
p2301
S'-122.163520'
p2302
tp2303
g76
s(S'37.825280'
p2304
S'-122.271651'
p2305
tp2306
g8
s(S'37.766375'
p2307
S'-122.157829'
p2308
tp2309
g817
s(S'37.866874'
p2310
S'-122.286164'
p2311
tp2312
g923
s(S'37.727029'
p2313
S'-122.199943'
p2314
tp2315
g123
s(S'37.801448'
p2316
S'-122.192829'
p2317
tp2318
g4
s(S'37.841693'
p2319
S'-122.236082'
p2320
tp2321
g20
s(S'37.809542'
p2322
S'-122.219293'
p2323
tp2324
g47
s(S'37.845290'
p2325
S'-122.233805'
p2326
tp2327
g20
s(S'37.840344'
p2328
S'-122.217586'
p2329
tp2330
g175
s(S'37.761878'
p2331
S'-122.160390'
p2332
tp2333
g817
s(S'37.809767'
p2334
S'-122.275635'
p2335
tp2336
g386
s(S'37.785485'
p2337
S'-122.207057'
p2338
tp2339
g88
s(S'37.720959'
p2340
S'-122.177463'
p2341
tp2342
g390
s(S'37.781438'
p2343
S'-122.283887'
p2344
tp2345
g28
s(S'37.845965'
p2346
S'-122.271651'
p2347
tp2348
g237
s(S'37.839669'
p2349
S'-122.251448'
p2350
tp2351
g274
s(S'37.795378'
p2352
S'-122.186569'
p2353
tp2354
g453
s(S'37.850911'
p2355
S'-122.249171'
p2356
tp2357
g104
s(S'37.866199'
p2358
S'-122.286733'
p2359
tp2360
g923
s(S'37.729727'
p2361
S'-122.199943'
p2362
tp2363
g123
s(S'37.795827'
p2364
S'-122.176325'
p2365
tp2366
g69
s(S'37.724331'
p2367
S'-122.221569'
p2368
tp2369
g123
s(S'37.777166'
p2370
S'-122.164658'
p2371
tp2372
g76
s(S'37.720284'
p2373
S'-122.207626'
p2374
tp2375
g123
s(S'37.844616'
p2376
S'-122.264537'
p2377
tp2378
g675
s(S'37.765250'
p2379
S'-122.169211'
p2380
tp2381
g517
s(S'37.778291'
p2382
S'-122.201081'
p2383
tp2384
g142
s(S'37.783911'
p2385
S'-122.289009'
p2386
tp2387
g28
s(S'37.859454'
p2388
S'-122.260554'
p2389
tp2390
g1885
s(S'37.770197'
p2391
S'-122.224700'
p2392
tp2393
g160
s(S'37.806394'
p2394
S'-122.210187'
p2395
tp2396
g693
s(S'37.787059'
p2397
S'-122.275066'
p2398
tp2399
g211
s(S'37.719385'
p2400
S'-122.172626'
p2401
tp2402
S'77212'
p2403
s(S'37.848887'
p2404
S'-122.204212'
p2405
tp2406
g175
s(S'37.764126'
p2407
S'-122.190837'
p2408
tp2409
g146
s(S'37.769297'
p2410
S'-122.173195'
p2411
tp2412
g339
s(S'37.853159'
p2413
S'-122.240350'
p2414
tp2415
g138
s(S'37.733100'
p2416
S'-122.199374'
p2417
tp2418
g123
s(S'37.848213'
p2419
S'-122.249456'
p2420
tp2421
g104
s(S'37.788408'
p2422
S'-122.185715'
p2423
tp2424
g248
s(S'37.856756'
p2425
S'-122.285879'
p2426
tp2427
g24
s(S'37.793804'
p2428
S'-122.214456'
p2429
tp2430
g801
s(S'37.763901'
p2431
S'-122.171772'
p2432
tp2433
g517
s(S'37.836746'
p2434
S'-122.279050'
p2435
tp2436
g54
s(S'37.762103'
p2437
S'-122.158113'
p2438
tp2439
g817
s(S'37.822132'
p2440
S'-122.266245'
p2441
tp2442
g375
s(S'37.786609'
p2443
S'-122.209618'
p2444
tp2445
g1305
s(S'37.770871'
p2446
S'-122.179455'
p2447
tp2448
g339
s(S'37.843716'
p2449
S'-122.268237'
p2450
tp2451
g237
s(S'37.798076'
p2452
S'-122.219008'
p2453
tp2454
g328
s(S'37.783012'
p2455
S'-122.220431'
p2456
tp2457
g718
s(S'37.830901'
p2458
S'-122.201366'
p2459
tp2460
g164
s(S'37.803472'
p2461
S'-122.242342'
p2462
tp2463
g12
s(S'37.802572'
p2464
S'-122.280188'
p2465
tp2466
g1771
s(S'37.853609'
p2467
S'-122.267952'
p2468
tp2469
g2053
s(S'37.857656'
p2470
S'-122.287587'
p2471
tp2472
g24
s(S'37.851810'
p2473
S'-122.262546'
p2474
tp2475
g675
s(S'37.846639'
p2476
S'-122.279904'
p2477
tp2478
g408
s(S'37.846414'
p2479
S'-122.208480'
p2480
tp2481
g175
s(S'37.731526'
p2482
S'-122.188276'
p2483
tp2484
g1940
s(S'37.776942'
p2485
S'-122.186854'
p2486
tp2487
g58
s(S'37.804146'
p2488
S'-122.269660'
p2489
tp2490
g428
s(S'37.832025'
p2491
S'-122.208195'
p2492
tp2493
g164
s(S'37.846189'
p2494
S'-122.213886'
p2495
tp2496
g175
s(S'37.873619'
p2497
S'-122.262546'
p2498
tp2499
g131
s(S'37.854958'
p2500
S'-122.286733'
p2501
tp2502
g24
s(S'37.795602'
p2503
S'-122.210472'
p2504
tp2505
g464
s(S'37.825055'
p2506
S'-122.193398'
p2507
tp2508
g84
s(S'37.846864'
p2509
S'-122.252586'
p2510
tp2511
g104
s(S'37.783237'
p2512
S'-122.231244'
p2513
tp2514
g346
s(S'37.851360'
p2515
S'-122.243765'
p2516
tp2517
g104
s(S'37.832025'
p2518
S'-122.258277'
p2519
tp2520
g171
s(S'37.785035'
p2521
S'-122.278481'
p2522
tp2523
g28
s(S'37.830676'
p2524
S'-122.256285'
p2525
tp2526
g171
s(S'37.818985'
p2527
S'-122.238643'
p2528
tp2529
g1026
s(S'37.774019'
p2530
S'-122.158682'
p2531
tp2532
g76
s(S'37.841918'
p2533
S'-122.213602'
p2534
tp2535
g175
s(S'37.801673'
p2536
S'-122.219008'
p2537
tp2538
g62
s(S'37.849787'
p2539
S'-122.285595'
p2540
tp2541
g408
s(S'37.858330'
p2542
S'-122.254293'
p2543
tp2544
g1885
s(S'37.831800'
p2545
S'-122.271651'
p2546
tp2547
g8
s(S'37.802572'
p2548
S'-122.278196'
p2549
tp2550
g207
s(S'37.794703'
p2551
S'-122.162382'
p2552
tp2553
g76
s(S'37.854058'
p2554
S'-122.233236'
p2555
tp2556
g32
s(S'37.848662'
p2557
S'-122.225553'
p2558
tp2559
g175
s(S'37.807743'
p2560
S'-122.275635'
p2561
tp2562
g386
s(S'37.866874'
p2563
S'-122.266245'
p2564
tp2565
g679
s(S'37.792005'
p2566
S'-122.187423'
p2567
tp2568
g453
s(S'37.866874'
p2569
S'-122.285879'
p2570
tp2571
g923
s(S'37.798975'
p2572
S'-122.185715'
p2573
tp2574
g69
s(S'37.749287'
p2575
S'-122.172626'
p2576
tp2577
g752
s(S'37.832700'
p2578
S'-122.190268'
p2579
tp2580
g84
s(S'37.860803'
p2581
S'-122.277343'
p2582
tp2583
g256
s(S'37.820109'
p2584
S'-122.276204'
p2585
tp2586
g483
s(S'37.828877'
p2587
S'-122.215309'
p2588
tp2589
g291
s(S'37.806394'
p2590
S'-122.184008'
p2591
tp2592
g69
s(S'37.830451'
p2593
S'-122.210187'
p2594
tp2595
g164
s(S'37.838095'
p2596
S'-122.295839'
p2597
tp2598
g894
s(S'37.870246'
p2599
S'-122.261976'
p2600
tp2601
g131
s(S'37.847313'
p2602
S'-122.279334'
p2603
tp2604
g408
s(S'37.852035'
p2605
S'-122.281042'
p2606
tp2607
g397
s(S'37.803022'
p2608
S'-122.278481'
p2609
tp2610
g1771
s(S'37.853609'
p2611
S'-122.254578'
p2612
tp2613
g1039
s(S'37.865525'
p2614
S'-122.261976'
p2615
tp2616
g1407
s(S'37.746589'
p2617
S'-122.196244'
p2618
tp2619
g123
s(S'37.858555'
p2620
S'-122.271651'
p2621
tp2622
g256
s(S'37.836746'
p2623
S'-122.206488'
p2624
tp2625
g164
s(S'37.838995'
p2626
S'-122.275351'
p2627
tp2628
g237
s(S'37.836971'
p2629
S'-122.254863'
p2630
tp2631
g274
s(S'37.844391'
p2632
S'-122.293278'
p2633
tp2634
g596
s(S'37.815612'
p2635
S'-122.238074'
p2636
tp2637
g252
s(S'37.854508'
p2638
S'-122.223277'
p2639
tp2640
g175
s(S'37.825505'
p2641
S'-122.186284'
p2642
tp2643
g84
s(S'37.790207'
p2644
S'-122.193398'
p2645
tp2646
g453
s(S'37.803247'
p2647
S'-122.210756'
p2648
tp2649
g693
s(S'37.820109'
p2650
S'-122.244334'
p2651
tp2652
g1026
s(S'37.798076'
p2653
S'-122.200797'
p2654
tp2655
g460
s(S'37.746589'
p2656
S'-122.173764'
p2657
tp2658
g1441
s(S'37.807294'
p2659
S'-122.244334'
p2660
tp2661
g12
s(S'37.806394'
p2662
S'-122.269090'
p2663
tp2664
g428
s(S'37.801223'
p2665
S'-122.219008'
p2666
tp2667
g62
s(S'37.856082'
p2668
S'-122.286733'
p2669
tp2670
g24
s(S'37.758955'
p2671
S'-122.180593'
p2672
tp2673
g308
s(S'37.777841'
p2674
S'-122.212464'
p2675
tp2676
g1305
s(S'37.825730'
p2677
S'-122.281042'
p2678
tp2679
g404
s(S'37.808418'
p2680
S'-122.239497'
p2681
tp2682
g295
s(S'37.811341'
p2683
S'-122.228968'
p2684
tp2685
g295
s(S'37.835173'
p2686
S'-122.198805'
p2687
tp2688
g164
s(S'37.834273'
p2689
S'-122.259131'
p2690
tp2691
g171
s(S'37.876766'
p2692
S'-122.277058'
p2693
tp2694
g1046
s(S'37.780314'
p2695
S'-122.290717'
p2696
tp2697
g28
s(S'37.843716'
p2698
S'-122.250594'
p2699
tp2700
g274
s(S'37.836971'
p2701
S'-122.301814'
p2702
tp2703
g80
s(S'37.869122'
p2704
S'-122.255147'
p2705
tp2706
g1407
s(S'37.777391'
p2707
S'-122.291001'
p2708
tp2709
g494
s(S'37.859679'
p2710
S'-122.287302'
p2711
tp2712
g24
s(S'37.723432'
p2713
S'-122.190837'
p2714
tp2715
g108
s(S'37.832025'
p2716
S'-122.271651'
p2717
tp2718
g8
s(S'37.860129'
p2719
S'-122.210187'
p2720
tp2721
g778
s(S'37.803022'
p2722
S'-122.243765'
p2723
tp2724
g12
s(S'37.817861'
p2725
S'-122.223846'
p2726
tp2727
g96
s(S'37.856532'
p2728
S'-122.224984'
p2729
tp2730
g32
s(S'37.779190'
p2731
S'-122.179740'
p2732
tp2733
g318
s(S'37.872944'
p2734
S'-122.279904'
p2735
tp2736
g1046
s(S'37.767274'
p2737
S'-122.180593'
p2738
tp2739
g339
s(S'37.776042'
p2740
S'-122.179171'
p2741
tp2742
g318
s(S'37.771096'
p2743
S'-122.220716'
p2744
tp2745
g160
s(S'37.875642'
p2746
S'-122.269944'
p2747
tp2748
g1354
s(S'37.803696'
p2749
S'-122.214456'
p2750
tp2751
g693
s(S'37.727929'
p2752
S'-122.181162'
p2753
tp2754
S'58441'
p2755
s(S'37.794703'
p2756
S'-122.193683'
p2757
tp2758
g4
s(S'37.780539'
p2759
S'-122.291855'
p2760
tp2761
g28
s(S'37.801673'
p2762
S'-122.175471'
p2763
tp2764
g69
s(S'37.785935'
p2765
S'-122.225553'
p2766
tp2767
g346
s(S'37.777616'
p2768
S'-122.234944'
p2769
tp2770
g160
s(S'37.812914'
p2771
S'-122.263968'
p2772
tp2773
g215
s(S'37.835173'
p2774
S'-122.219008'
p2775
tp2776
g100
s(S'37.828653'
p2777
S'-122.256001'
p2778
tp2779
g127
s(S'37.741643'
p2780
S'-122.198236'
p2781
tp2782
g123
s(S'37.791780'
p2783
S'-122.182016'
p2784
tp2785
g248
s(S'37.868223'
p2786
S'-122.287302'
p2787
tp2788
g923
s(S'37.826629'
p2789
S'-122.267952'
p2790
tp2791
g116
s(S'37.808867'
p2792
S'-122.221285'
p2793
tp2794
g47
s(S'37.806844'
p2795
S'-122.240635'
p2796
tp2797
g12
s(S'37.851136'
p2798
S'-122.283318'
p2799
tp2800
g397
s(S'37.791106'
p2801
S'-122.201081'
p2802
tp2803
g88
s(S'37.863501'
p2804
S'-122.270229'
p2805
tp2806
g942
s(S'37.841468'
p2807
S'-122.214171'
p2808
tp2809
g175
s(S'37.841918'
p2810
S'-122.266245'
p2811
tp2812
S'87527'
p2813
s(S'37.856082'
p2814
S'-122.289294'
p2815
tp2816
g244
s(S'37.714888'
p2817
S'-122.172626'
p2818
tp2819
g108
s(S'37.822357'
p2820
S'-122.259700'
p2821
tp2822
g215
s(S'37.730402'
p2823
S'-122.208764'
p2824
tp2825
g123
s(S'37.836971'
p2826
S'-122.187707'
p2827
tp2828
g164
s(S'37.847313'
p2829
S'-122.282180'
p2830
tp2831
g408
s(S'37.782113'
p2832
S'-122.235513'
p2833
tp2834
g160
s(S'37.820109'
p2835
S'-122.197382'
p2836
tp2837
g84
s(S'37.791556'
p2838
S'-122.205065'
p2839
tp2840
g464
s(S'37.834723'
p2841
S'-122.213033'
p2842
tp2843
g175
s(S'37.780314'
p2844
S'-122.187992'
p2845
tp2846
g58
s(S'37.829102'
p2847
S'-122.194537'
p2848
tp2849
g84
s(S'37.823706'
p2850
S'-122.267098'
p2851
tp2852
g375
s(S'37.801448'
p2853
S'-122.219008'
p2854
tp2855
g62
s(S'37.838995'
p2856
S'-122.203358'
p2857
tp2858
g164
s(S'37.812240'
p2859
S'-122.239212'
p2860
tp2861
g295
s(S'37.849787'
p2862
S'-122.236082'
p2863
tp2864
g20
s(S'37.853384'
p2865
S'-122.256285'
p2866
tp2867
g1039
s(S'37.731975'
p2868
S'-122.184293'
p2869
tp2870
g1940
s(S'37.846414'
p2871
S'-122.277343'
p2872
tp2873
g237
s(S'37.798300'
p2874
S'-122.194537'
p2875
tp2876
g4
s(S'37.836746'
p2877
S'-122.293278'
p2878
tp2879
g894
s(S'37.778965'
p2880
S'-122.198805'
p2881
tp2882
g142
s(S'37.820334'
p2883
S'-122.261407'
p2884
tp2885
g375
s(S'37.816961'
p2886
S'-122.238643'
p2887
tp2888
g252
s(S'37.864401'
p2889
S'-122.271651'
p2890
tp2891
g679
s(S'37.820783'
p2892
S'-122.256285'
p2893
tp2894
g215
s(S'37.785260'
p2895
S'-122.214171'
p2896
tp2897
g270
s(S'37.832700'
p2898
S'-122.275635'
p2899
tp2900
g8
s(S'37.725680'
p2901
S'-122.183439'
p2902
tp2903
g123
s(S'37.842367'
p2904
S'-122.222992'
p2905
tp2906
g175
s(S'37.783686'
p2907
S'-122.278196'
p2908
tp2909
g28
s(S'37.749063'
p2910
S'-122.191406'
p2911
tp2912
g606
s(S'37.824606'
p2913
S'-122.205065'
p2914
tp2915
g164
s(S'37.858780'
p2916
S'-122.272505'
p2917
tp2918
g256
s(S'37.727704'
p2919
S'-122.197098'
p2920
tp2921
g123
s(S'37.827528'
p2922
S'-122.187423'
p2923
tp2924
g84
s(S'37.864401'
p2925
S'-122.286448'
p2926
tp2927
g923
s(S'37.859454'
p2928
S'-122.236082'
p2929
tp2930
g32
s(S'37.809317'
p2931
S'-122.250879'
p2932
tp2933
g487
s(S'37.801223'
p2934
S'-122.282180'
p2935
tp2936
g689
s(S'37.795827'
p2937
S'-122.197098'
p2938
tp2939
g4
s(S'37.847313'
p2940
S'-122.214456'
p2941
tp2942
g175
s(S'37.795378'
p2943
S'-122.191122'
p2944
tp2945
g453
s(S'37.778740'
p2946
S'-122.280473'
p2947
tp2948
g494
s(S'37.800099'
p2949
S'-122.177748'
p2950
tp2951
g69
s(S'37.819659'
p2952
S'-122.279904'
p2953
tp2954
g16
s(S'37.791556'
p2955
S'-122.215025'
p2956
tp2957
g718
s(S'37.722083'
p2958
S'-122.179455'
p2959
tp2960
g390
s(S'37.756032'
p2961
S'-122.163520'
p2962
tp2963
g183
s(S'37.859005'
p2964
S'-122.277343'
p2965
tp2966
g256
s(S'37.724331'
p2967
S'-122.174902'
p2968
tp2969
g390
s(S'37.833824'
p2970
S'-122.201651'
p2971
tp2972
g164
s(S'37.758056'
p2973
S'-122.184293'
p2974
tp2975
g308
s(S'37.850011'
p2976
S'-122.262546'
p2977
tp2978
g675
s(S'37.843267'
p2979
S'-122.217870'
p2980
tp2981
g175
s(S'37.850461'
p2982
S'-122.264253'
p2983
tp2984
g675
s(S'37.807294'
p2985
S'-122.226407'
p2986
tp2987
g47
s(S'37.858330'
p2988
S'-122.243765'
p2989
tp2990
g222
s(S'37.868672'
p2991
S'-122.240350'
p2992
tp2993
g32
s(S'37.798975'
p2994
S'-122.283318'
p2995
tp2996
g689
s(S'37.792905'
p2997
S'-122.163235'
p2998
tp2999
g76
s(S'37.751086'
p3000
S'-122.173479'
p3001
tp3002
g752
s(S'37.834723'
p3003
S'-122.262830'
p3004
tp3005
g116
s(S'37.835173'
p3006
S'-122.294700'
p3007
tp3008
g894
s(S'37.796277'
p3009
S'-122.228399'
p3010
tp3011
g382
s(S'37.842367'
p3012
S'-122.290148'
p3013
tp3014
g596
s(S'37.796727'
p3015
S'-122.264822'
p3016
tp3017
g153
s(S'37.761203'
p3018
S'-122.164658'
p3019
tp3020
g183
s(S'37.757156'
p3021
S'-122.167504'
p3022
tp3023
g183
s(S'37.849112'
p3024
S'-122.226122'
p3025
tp3026
g175
s(S'37.875417'
p3027
S'-122.292139'
p3028
tp3029
S'86417'
p3030
s(S'37.805495'
p3031
S'-122.239212'
p3032
tp3033
g12
s(S'37.740519'
p3034
S'-122.192260'
p3035
tp3036
g123
s(S'37.851136'
p3037
S'-122.289294'
p3038
tp3039
g244
s(S'37.843042'
p3040
S'-122.244049'
p3041
tp3042
g20
s(S'37.863276'
p3043
S'-122.235228'
p3044
tp3045
g32
s(S'37.795602'
p3046
S'-122.264253'
p3047
tp3048
g153
s(S'37.803921'
p3049
S'-122.209903'
p3050
tp3051
g460
s(S'37.841693'
p3052
S'-122.197951'
p3053
tp3054
g164
s(S'37.753784'
p3055
S'-122.209334'
p3056
tp3057
g123
s(S'37.816062'
p3058
S'-122.266529'
p3059
tp3060
g375
s(S'37.818086'
p3061
S'-122.200228'
p3062
tp3063
g84
s(S'37.786834'
p3064
S'-122.191976'
p3065
tp3066
g248
s(S'37.842592'
p3067
S'-122.271082'
p3068
tp3069
g237
s(S'37.776492'
p3070
S'-122.223561'
p3071
tp3072
g160
s(S'37.849337'
p3073
S'-122.281895'
p3074
tp3075
g397
s(S'37.817411'
p3076
S'-122.188845'
p3077
tp3078
g84
s(S'37.837421'
p3079
S'-122.260838'
p3080
tp3081
g274
s(S'37.785260'
p3082
S'-122.234659'
p3083
tp3084
S'49929'
p3085
s(S'37.758281'
p3086
S'-122.168927'
p3087
tp3088
g183
s(S'37.860129'
p3089
S'-122.271651'
p3090
tp3091
g942
s(S'37.852035'
p3092
S'-122.276489'
p3093
tp3094
g230
s(S'37.798975'
p3095
S'-122.226122'
p3096
tp3097
g382
s(S'37.828877'
p3098
S'-122.252017'
p3099
tp3100
g127
s(S'37.831351'
p3101
S'-122.293562'
p3102
tp3103
g226
s(S'37.749063'
p3104
S'-122.184008'
p3105
tp3106
g606
s(S'37.800324'
p3107
S'-122.215878'
p3108
tp3109
g693
s(S'37.792005'
p3110
S'-122.217586'
p3111
tp3112
g718
s(S'37.843267'
p3113
S'-122.226122'
p3114
tp3115
g20
s(S'37.803022'
p3116
S'-122.276773'
p3117
tp3118
g207
s(S'37.771321'
p3119
S'-122.207342'
p3120
tp3121
g833
s(S'37.748838'
p3122
S'-122.164943'
p3123
tp3124
g281
s(S'37.754683'
p3125
S'-122.186569'
p3126
tp3127
g112
s(S'37.780989'
p3128
S'-122.210756'
p3129
tp3130
g1305
s(S'37.774019'
p3131
S'-122.212464'
p3132
tp3133
g833
s(S'37.780989'
p3134
S'-122.221569'
p3135
tp3136
g190
s.