(dp0
(S'37.797401'
p1
S'-122.201651'
p2
tp3
I1
s(S'37.830451'
p4
S'-122.272790'
p5
tp6
I0
s(S'37.807519'
p7
S'-122.241204'
p8
tp9
I1
s(S'37.789757'
p10
S'-122.206488'
p11
tp12
I0
s(S'37.847988'
p13
S'-122.236366'
p14
tp15
I2
s(S'37.849787'
p16
S'-122.239497'
p17
tp18
I2
s(S'37.857431'
p19
S'-122.283034'
p20
tp21
I1
s(S'37.781438'
p22
S'-122.288440'
p23
tp24
I1
s(S'37.856532'
p25
S'-122.222708'
p26
tp27
I2
s(S'37.878790'
p28
S'-122.277343'
p29
tp30
I1
s(S'37.773569'
p31
S'-122.194537'
p32
tp33
I1
s(S'37.808193'
p34
S'-122.220716'
p35
tp36
I1
s(S'37.785710'
p37
S'-122.291286'
p38
tp39
I1
s(S'37.812914'
p40
S'-122.226976'
p41
tp42
I2
s(S'37.782113'
p43
S'-122.188845'
p44
tp45
I1
s(S'37.806170'
p46
S'-122.224700'
p47
tp48
I1
s(S'37.801673'
p49
S'-122.178601'
p50
tp51
I2
s(S'37.803022'
p52
S'-122.243480'
p53
tp54
I1
s(S'37.782338'
p55
S'-122.175187'
p56
tp57
I1
s(S'37.837871'
p58
S'-122.296692'
p59
tp60
I1
s(S'37.818086'
p61
S'-122.181732'
p62
tp63
I2
s(S'37.813139'
p64
S'-122.274782'
p65
tp66
I0
s(S'37.764351'
p67
S'-122.200797'
p68
tp69
I0
s(S'37.776492'
p70
S'-122.287587'
p71
tp72
I0
s(S'37.834723'
p73
S'-122.218724'
p74
tp75
I2
s(S'37.845740'
p76
S'-122.252017'
p77
tp78
I2
s(S'37.720509'
p79
S'-122.178601'
p80
tp81
I0
s(S'37.754459'
p82
S'-122.181162'
p83
tp84
I0
s(S'37.805270'
p85
S'-122.202789'
p86
tp87
I1
s(S'37.764576'
p88
S'-122.217586'
p89
tp90
I0
s(S'37.743667'
p91
S'-122.188845'
p92
tp93
I0
s(S'37.832924'
p94
S'-122.250879'
p95
tp96
I1
s(S'37.869347'
p97
S'-122.250594'
p98
tp99
I2
s(S'37.723882'
p100
S'-122.201081'
p101
tp102
I0
s(S'37.856082'
p103
S'-122.241488'
p104
tp105
I2
s(S'37.777616'
p106
S'-122.203358'
p107
tp108
I0
s(S'37.766599'
p109
S'-122.187707'
p110
tp111
I0
s(S'37.757156'
p112
S'-122.188276'
p113
tp114
I0
s(S'37.798300'
p115
S'-122.267668'
p116
tp117
I0
s(S'37.785485'
p118
S'-122.291286'
p119
tp120
I1
s(S'37.770197'
p121
S'-122.217870'
p122
tp123
I0
s(S'37.806844'
p124
S'-122.226122'
p125
tp126
I1
s(S'37.825505'
p127
S'-122.259415'
p128
tp129
I1
s(S'37.833599'
p130
S'-122.217586'
p131
tp132
I2
s(S'37.754908'
p133
S'-122.196528'
p134
tp135
I0
s(S'37.846414'
p136
S'-122.247749'
p137
tp138
I2
s(S'37.778291'
p139
S'-122.215878'
p140
tp141
I0
s(S'37.825505'
p142
S'-122.267098'
p143
tp144
I0
s(S'37.866424'
p145
S'-122.221285'
p146
tp147
I2
s(S'37.795153'
p148
S'-122.196813'
p149
tp150
I1
s(S'37.812240'
p151
S'-122.258277'
p152
tp153
I0
s(S'37.800774'
p154
S'-122.274497'
p155
tp156
I1
s(S'37.784586'
p157
S'-122.276489'
p158
tp159
I1
s(S'37.820783'
p160
S'-122.254578'
p161
tp162
I0
s(S'37.839220'
p163
S'-122.247180'
p164
tp165
I2
s(S'37.860803'
p166
S'-122.250594'
p167
tp168
I1
s(S'37.825055'
p169
S'-122.283887'
p170
tp171
I1
s(S'37.850236'
p172
S'-122.274782'
p173
tp174
I0
s(S'37.815837'
p175
S'-122.217017'
p176
tp177
I2
s(S'37.839444'
p178
S'-122.272790'
p179
tp180
I0
s(S'37.762103'
p181
S'-122.198520'
p182
tp183
I0
s(S'37.855632'
p184
S'-122.289009'
p185
tp186
I1
s(S'37.786160'
p187
S'-122.180878'
p188
tp189
I1
s(S'37.816961'
p190
S'-122.240635'
p191
tp192
I1
s(S'37.860129'
p193
S'-122.280473'
p194
tp195
I1
s(S'37.791331'
p196
S'-122.181447'
p197
tp198
I1
s(S'37.815612'
p199
S'-122.209618'
p200
tp201
I2
s(S'37.848887'
p202
S'-122.204496'
p203
tp204
I2
s(S'37.785485'
p205
S'-122.211325'
p206
tp207
I0
s(S'37.847313'
p208
S'-122.244619'
p209
tp210
I1
s(S'37.749512'
p211
S'-122.167504'
p212
tp213
I0
s(S'37.828203'
p214
S'-122.207057'
p215
tp216
I2
s(S'37.818310'
p217
S'-122.244334'
p218
tp219
I1
s(S'37.830901'
p220
S'-122.219578'
p221
tp222
I2
s(S'37.829327'
p223
S'-122.279619'
p224
tp225
I1
s(S'37.833599'
p226
S'-122.279334'
p227
tp228
I1
s(S'37.830451'
p229
S'-122.208195'
p230
tp231
I2
s(S'37.800099'
p232
S'-122.193683'
p233
tp234
I1
s(S'37.764801'
p235
S'-122.213886'
p236
tp237
I0
s(S'37.863052'
p238
S'-122.251448'
p239
tp240
I1
s(S'37.832250'
p241
S'-122.280473'
p242
tp243
I1
s(S'37.794478'
p244
S'-122.222992'
p245
tp246
I0
s(S'37.783237'
p247
S'-122.224415'
p248
tp249
I0
s(S'37.781888'
p250
S'-122.173195'
p251
tp252
I1
s(S'37.762103'
p253
S'-122.190837'
p254
tp255
I0
s(S'37.825730'
p256
S'-122.204781'
p257
tp258
I2
s(S'37.787509'
p259
S'-122.227830'
p260
tp261
I0
s(S'37.826854'
p262
S'-122.277627'
p263
tp264
I0
s(S'37.831351'
p265
S'-122.207057'
p266
tp267
I2
s(S'37.774468'
p268
S'-122.187992'
p269
tp270
I1
s(S'37.817411'
p271
S'-122.228968'
p272
tp273
I2
s(S'37.736697'
p274
S'-122.184577'
p275
tp276
I0
s(S'37.826404'
p277
S'-122.198805'
p278
tp279
I2
s(S'37.837871'
p280
S'-122.187992'
p281
tp282
I2
s(S'37.819435'
p283
S'-122.263399'
p284
tp285
I0
s(S'37.859229'
p286
S'-122.235797'
p287
tp288
I2
s(S'37.799649'
p289
S'-122.231244'
p290
tp291
I0
s(S'37.811790'
p292
S'-122.277912'
p293
tp294
I0
s(S'37.722308'
p295
S'-122.176894'
p296
tp297
I0
s(S'37.719610'
p298
S'-122.176040'
p299
tp300
I0
s(S'37.850686'
p301
S'-122.285595'
p302
tp303
I0
s(S'37.756257'
p304
S'-122.188845'
p305
tp306
I0
s(S'37.827079'
p307
S'-122.281326'
p308
tp309
I0
s(S'37.842817'
p310
S'-122.285595'
p311
tp312
I1
s(S'37.834273'
p313
S'-122.259131'
p314
tp315
I1
s(S'37.822807'
p316
S'-122.187138'
p317
tp318
I2
s(S'37.832475'
p319
S'-122.262261'
p320
tp321
I0
s(S'37.768848'
p322
S'-122.185715'
p323
tp324
I0
s(S'37.867773'
p325
S'-122.246326'
p326
tp327
I0
s(S'37.735798'
p328
S'-122.201651'
p329
tp330
I0
s(S'37.808418'
p331
S'-122.268521'
p332
tp333
I0
s(S'37.866649'
p334
S'-122.253155'
p335
tp336
I0
s(S'37.808418'
p337
S'-122.241773'
p338
tp339
I1
s(S'37.796052'
p340
S'-122.180593'
p341
tp342
I1
s(S'37.800549'
p343
S'-122.222992'
p344
tp345
I1
s(S'37.731301'
p346
S'-122.189699'
p347
tp348
I0
s(S'37.802347'
p349
S'-122.176040'
p350
tp351
I2
s(S'37.715338'
p352
S'-122.190268'
p353
tp354
I0
s(S'37.789532'
p355
S'-122.195959'
p356
tp357
I1
s(S'37.821458'
p358
S'-122.207342'
p359
tp360
I2
s(S'37.794928'
p361
S'-122.207342'
p362
tp363
I0
s(S'37.829552'
p364
S'-122.264253'
p365
tp366
I0
s(S'37.828203'
p367
S'-122.258562'
p368
tp369
I1
s(S'37.774918'
p370
S'-122.181447'
p371
tp372
I0
s(S'37.859904'
p373
S'-122.285026'
p374
tp375
I1
s(S'37.827079'
p376
S'-122.211325'
p377
tp378
I2
s(S'37.813814'
p379
S'-122.273928'
p380
tp381
I0
s(S'37.809317'
p382
S'-122.248887'
p383
tp384
I1
s(S'37.772895'
p385
S'-122.220147'
p386
tp387
I0
s(S'37.779190'
p388
S'-122.280188'
p389
tp390
I0
s(S'37.795827'
p391
S'-122.172057'
p392
tp393
I1
s(S'37.859454'
p394
S'-122.275920'
p395
tp396
I1
s(S'37.834723'
p397
S'-122.220716'
p398
tp399
I2
s(S'37.721184'
p400
S'-122.175187'
p401
tp402
I0
s(S'37.821908'
p403
S'-122.254293'
p404
tp405
I1
s(S'37.804146'
p406
S'-122.269660'
p407
tp408
I0
s(S'37.761203'
p409
S'-122.171488'
p410
tp411
I0
s(S'37.757381'
p412
S'-122.182016'
p413
tp414
I0
s(S'37.857656'
p415
S'-122.277627'
p416
tp417
I1
s(S'37.787509'
p418
S'-122.168357'
p419
tp420
I1
s(S'37.829102'
p421
S'-122.268521'
p422
tp423
I0
s(S'37.744116'
p424
S'-122.189130'
p425
tp426
I0
s(S'37.853609'
p427
S'-122.213886'
p428
tp429
I2
s(S'37.848887'
p430
S'-122.242911'
p431
tp432
I2
s(S'37.789532'
p433
S'-122.225838'
p434
tp435
I0
s(S'37.857881'
p436
S'-122.214171'
p437
tp438
I2
s(S'37.844166'
p439
S'-122.252871'
p440
tp441
I1
s(S'37.775817'
p442
S'-122.224130'
p443
tp444
I0
s(S'37.814938'
p445
S'-122.246041'
p446
tp447
I1
s(S'37.802347'
p448
S'-122.176325'
p449
tp450
I2
s(S'37.724781'
p451
S'-122.182585'
p452
tp453
I0
s(S'37.832475'
p454
S'-122.219008'
p455
tp456
I2
s(S'37.801898'
p457
S'-122.187992'
p458
tp459
I2
s(S'37.860803'
p460
S'-122.250310'
p461
tp462
I1
s(S'37.852709'
p463
S'-122.246041'
p464
tp465
I2
s(S'37.818760'
p466
S'-122.233805'
p467
tp468
I2
s(S'37.799200'
p469
S'-122.268806'
p470
tp471
I0
s(S'37.845965'
p472
S'-122.271651'
p473
tp474
I0
s(S'37.808418'
p475
S'-122.269944'
p476
tp477
I0
s(S'37.845965'
p478
S'-122.293847'
p479
tp480
I1
s(S'37.820783'
p481
S'-122.270798'
p482
tp483
I0
s(S'37.846189'
p484
S'-122.284741'
p485
tp486
I1
s(S'37.752435'
p487
S'-122.176610'
p488
tp489
I0
s(S'37.804596'
p490
S'-122.233805'
p491
tp492
I1
s(S'37.820334'
p493
S'-122.249456'
p494
tp495
I1
s(S'37.866424'
p496
S'-122.292424'
p497
tp498
I0
s(S'37.779864'
p499
S'-122.170634'
p500
tp501
I1
s(S'37.792005'
p502
S'-122.217586'
p503
tp504
I0
s(S'37.854733'
p505
S'-122.211041'
p506
tp507
I2
s(S'37.825955'
p508
S'-122.289863'
p509
tp510
I1
s(S'37.824156'
p511
S'-122.267668'
p512
tp513
I0
s(S'37.844391'
p514
S'-122.292709'
p515
tp516
I1
s(S'37.772220'
p517
S'-122.168927'
p518
tp519
I1
s(S'37.811790'
p520
S'-122.229822'
p521
tp522
I2
s(S'37.733549'
p523
S'-122.205634'
p524
tp525
I0
s(S'37.757156'
p526
S'-122.176610'
p527
tp528
I0
s(S'37.824381'
p529
S'-122.250025'
p530
tp531
I1
s(S'37.778291'
p532
S'-122.291286'
p533
tp534
I0
s(S'37.841018'
p535
S'-122.314050'
p536
tp537
I1
s(S'37.866424'
p538
S'-122.230960'
p539
tp540
I2
s(S'37.820109'
p541
S'-122.195675'
p542
tp543
I2
s(S'37.715338'
p544
S'-122.189984'
p545
tp546
I0
s(S'37.761428'
p547
S'-122.203358'
p548
tp549
I0
s(S'37.846414'
p550
S'-122.266814'
p551
tp552
I1
s(S'37.869122'
p553
S'-122.272505'
p554
tp555
I0
s(S'37.845065'
p556
S'-122.213886'
p557
tp558
I2
s(S'37.801448'
p559
S'-122.175187'
p560
tp561
I2
s(S'37.798975'
p562
S'-122.281611'
p563
tp564
I1
s(S'37.806844'
p565
S'-122.213317'
p566
tp567
I1
s(S'37.767948'
p568
S'-122.201651'
p569
tp570
I0
s(S'37.843491'
p571
S'-122.282465'
p572
tp573
I1
s(S'37.837871'
p574
S'-122.217017'
p575
tp576
I2
s(S'37.803022'
p577
S'-122.176894'
p578
tp579
I2
s(S'37.767049'
p580
S'-122.169211'
p581
tp582
I0
s(S'37.784586'
p583
S'-122.232383'
p584
tp585
I0
s(S'37.791331'
p586
S'-122.215025'
p587
tp588
I0
s(S'37.803696'
p589
S'-122.214456'
p590
tp591
I1
s(S'37.762777'
p592
S'-122.204212'
p593
tp594
I0
s(S'37.810666'
p595
S'-122.232383'
p596
tp597
I2
s(S'37.831800'
p598
S'-122.215025'
p599
tp600
I2
s(S'37.800099'
p601
S'-122.198520'
p602
tp603
I1
s(S'37.827978'
p604
S'-122.274497'
p605
tp606
I0
s(S'37.759854'
p607
S'-122.183439'
p608
tp609
I0
s(S'37.794703'
p610
S'-122.193683'
p611
tp612
I1
s(S'37.838770'
p613
S'-122.258562'
p614
tp615
I1
s(S'37.838995'
p616
S'-122.222992'
p617
tp618
I2
s(S'37.754908'
p619
S'-122.171488'
p620
tp621
I0
s(S'37.818086'
p622
S'-122.267098'
p623
tp624
I0
s(S'37.844616'
p625
S'-122.236936'
p626
tp627
I2
s(S'37.769747'
p628
S'-122.192829'
p629
tp630
I0
s(S'37.817411'
p631
S'-122.254009'
p632
tp633
I1
s(S'37.824606'
p634
S'-122.206488'
p635
tp636
I2
s(S'37.786834'
p637
S'-122.201935'
p638
tp639
I0
s(S'37.830226'
p640
S'-122.199659'
p641
tp642
I2
s(S'37.860803'
p643
S'-122.209334'
p644
tp645
I2
s(S'37.862602'
p646
S'-122.248887'
p647
tp648
I1
s(S'37.871146'
p649
S'-122.223846'
p650
tp651
I2
s(S'37.780539'
p652
S'-122.283034'
p653
tp654
I1
s(S'37.848662'
p655
S'-122.232383'
p656
tp657
I2
s(S'37.828877'
p658
S'-122.210472'
p659
tp660
I2
s(S'37.803921'
p661
S'-122.232952'
p662
tp663
I0
s(S'37.795602'
p664
S'-122.215309'
p665
tp666
I0
s(S'37.862152'
p667
S'-122.280757'
p668
tp669
I1
s(S'37.779640'
p670
S'-122.294131'
p671
tp672
I1
s(S'37.821008'
p673
S'-122.199374'
p674
tp675
I2
s(S'37.820109'
p676
S'-122.281895'
p677
tp678
I0
s(S'37.760979'
p679
S'-122.159821'
p680
tp681
I0
s(S'37.768173'
p682
S'-122.191691'
p683
tp684
I0
s(S'37.809542'
p685
S'-122.191406'
p686
tp687
I2
s(S'37.733100'
p688
S'-122.188276'
p689
tp690
I0
s(S'37.852709'
p691
S'-122.281326'
p692
tp693
I0
s(S'37.799200'
p694
S'-122.286448'
p695
tp696
I1
s(S'37.772670'
p697
S'-122.207626'
p698
tp699
I0
s(S'37.843267'
p700
S'-122.254578'
p701
tp702
I1
s(S'37.804821'
p703
S'-122.234090'
p704
tp705
I1
s(S'37.816961'
p706
S'-122.248602'
p707
tp708
I1
s(S'37.771995'
p709
S'-122.214171'
p710
tp711
I0
s(S'37.840569'
p712
S'-122.262546'
p713
tp714
I1
s(S'37.821233'
p715
S'-122.257708'
p716
tp717
I0
s(S'37.836297'
p718
S'-122.217586'
p719
tp720
I2
s(S'37.780314'
p721
S'-122.290717'
p722
tp723
I1
s(S'37.785485'
p724
S'-122.193114'
p725
tp726
I1
s(S'37.850911'
p727
S'-122.228399'
p728
tp729
I2
s(S'37.736922'
p730
S'-122.192829'
p731
tp732
I0
s(S'37.776267'
p733
S'-122.183723'
p734
tp735
I0
s(S'37.854508'
p736
S'-122.254863'
p737
tp738
I1
s(S'37.750187'
p739
S'-122.186284'
p740
tp741
I0
s(S'37.862152'
p742
S'-122.281042'
p743
tp744
I1
s(S'37.827978'
p745
S'-122.209618'
p746
tp747
I2
s(S'37.714664'
p748
S'-122.213602'
p749
tp750
I0
s(S'37.858780'
p751
S'-122.273074'
p752
tp753
I1
s(S'37.858330'
p754
S'-122.253155'
p755
tp756
I1
s(S'37.830451'
p757
S'-122.191122'
p758
tp759
I2
s(S'37.843716'
p760
S'-122.253155'
p761
tp762
I1
s(S'37.794928'
p763
S'-122.275635'
p764
tp765
I2
s(S'37.779864'
p766
S'-122.280757'
p767
tp768
I1
s(S'37.756707'
p769
S'-122.193398'
p770
tp771
I0
s(S'37.819884'
p772
S'-122.199943'
p773
tp774
I2
s(S'37.834498'
p775
S'-122.292993'
p776
tp777
I1
s(S'37.843267'
p778
S'-122.226122'
p779
tp780
I2
s(S'37.809992'
p781
S'-122.248033'
p782
tp783
I1
s(S'37.867998'
p784
S'-122.288156'
p785
tp786
I1
s(S'37.857206'
p787
S'-122.247464'
p788
tp789
I2
s(S'37.749512'
p790
S'-122.185431'
p791
tp792
I0
s(S'37.772445'
p793
S'-122.228114'
p794
tp795
I0
s(S'37.787059'
p796
S'-122.198805'
p797
tp798
I0
s(S'37.860803'
p799
S'-122.266814'
p800
tp801
I0
s(S'37.869797'
p802
S'-122.275066'
p803
tp804
I1
s(S'37.812690'
p805
S'-122.243765'
p806
tp807
I1
s(S'37.792230'
p808
S'-122.223846'
p809
tp810
I0
s(S'37.794254'
p811
S'-122.182585'
p812
tp813
I1
s(S'37.728603'
p814
S'-122.186854'
p815
tp816
I0
s(S'37.830002'
p817
S'-122.276204'
p818
tp819
I0
s(S'37.830451'
p820
S'-122.256001'
p821
tp822
I1
s(S'37.845740'
p823
S'-122.276489'
p824
tp825
I0
s(S'37.842142'
p826
S'-122.283318'
p827
tp828
I1
s(S'37.851136'
p829
S'-122.266814'
p830
tp831
I1
s(S'37.842142'
p832
S'-122.224984'
p833
tp834
I2
s(S'37.767724'
p835
S'-122.219578'
p836
tp837
I0
s(S'37.857431'
p838
S'-122.222423'
p839
tp840
I2
s(S'37.781888'
p841
S'-122.289863'
p842
tp843
I1
s(S'37.775368'
p844
S'-122.204212'
p845
tp846
I0
s(S'37.841693'
p847
S'-122.217870'
p848
tp849
I2
s(S'37.808643'
p850
S'-122.274212'
p851
tp852
I0
s(S'37.824606'
p853
S'-122.258846'
p854
tp855
I1
s(S'37.818086'
p856
S'-122.227545'
p857
tp858
I2
s(S'37.744791'
p859
S'-122.189984'
p860
tp861
I0
s(S'37.827304'
p862
S'-122.275351'
p863
tp864
I0
s(S'37.838770'
p865
S'-122.287871'
p866
tp867
I1
s(S'37.878565'
p868
S'-122.268521'
p869
tp870
I1
s(S'37.840119'
p871
S'-122.267383'
p872
tp873
I0
s(S'37.827079'
p874
S'-122.206488'
p875
tp876
I2
s(S'37.822807'
p877
S'-122.247180'
p878
tp879
I2
s(S'37.832475'
p880
S'-122.253724'
p881
tp882
I1
s(S'37.822807'
p883
S'-122.246610'
p884
tp885
I2
s(S'37.854283'
p886
S'-122.260838'
p887
tp888
I1
s(S'37.823931'
p889
S'-122.271936'
p890
tp891
I0
s(S'37.858105'
p892
S'-122.280188'
p893
tp894
I1
s(S'37.828428'
p895
S'-122.260269'
p896
tp897
I1
s(S'37.862152'
p898
S'-122.259700'
p899
tp900
I0
s(S'37.826854'
p901
S'-122.207911'
p902
tp903
I2
s(S'37.775593'
p904
S'-122.214456'
p905
tp906
I0
s(S'37.742543'
p907
S'-122.202220'
p908
tp909
I0
s(S'37.738945'
p910
S'-122.196528'
p911
tp912
I0
s(S'37.804146'
p913
S'-122.167788'
p914
tp915
I1
s(S'37.835173'
p916
S'-122.220147'
p917
tp918
I2
s(S'37.779864'
p919
S'-122.179455'
p920
tp921
I1
s(S'37.798975'
p922
S'-122.275351'
p923
tp924
I1
s(S'37.801448'
p925
S'-122.220716'
p926
tp927
I1
s(S'37.810891'
p928
S'-122.250025'
p929
tp930
I1
s(S'37.771770'
p931
S'-122.188561'
p932
tp933
I0
s(S'37.845290'
p934
S'-122.238927'
p935
tp936
I2
s(S'37.825730'
p937
S'-122.267383'
p938
tp939
I0
s(S'37.865300'
p940
S'-122.230106'
p941
tp942
I2
s(S'37.834723'
p943
S'-122.291570'
p944
tp945
I1
s(S'37.781888'
p946
S'-122.291286'
p947
tp948
I1
s(S'37.798750'
p949
S'-122.289009'
p950
tp951
I1
s(S'37.837871'
p952
S'-122.219008'
p953
tp954
I2
s(S'37.794703'
p955
S'-122.215594'
p956
tp957
I0
s(S'37.784811'
p958
S'-122.220147'
p959
tp960
I0
s(S'37.845290'
p961
S'-122.233805'
p962
tp963
I2
s(S'37.847763'
p964
S'-122.200512'
p965
tp966
I2
s(S'37.854733'
p967
S'-122.274782'
p968
tp969
I1
s(S'37.802797'
p970
S'-122.231813'
p971
tp972
I0
s(S'37.816512'
p973
S'-122.196813'
p974
tp975
I2
s(S'37.795602'
p976
S'-122.183723'
p977
tp978
I1
s(S'37.848662'
p979
S'-122.201935'
p980
tp981
I2
s(S'37.731301'
p982
S'-122.207626'
p983
tp984
I0
s(S'37.826629'
p985
S'-122.265107'
p986
tp987
I0
s(S'37.814263'
p988
S'-122.257993'
p989
tp990
I1
s(S'37.757156'
p991
S'-122.167504'
p992
tp993
I0
s(S'37.866424'
p994
S'-122.277058'
p995
tp996
I1
s(S'37.790207'
p997
S'-122.185715'
p998
tp999
I1
s(S'37.833824'
p1000
S'-122.205919'
p1001
tp1002
I2
s(S'37.792905'
p1003
S'-122.158113'
p1004
tp1005
I1
s(S'37.790656'
p1006
S'-122.275066'
p1007
tp1008
I1
s(S'37.815837'
p1009
S'-122.239212'
p1010
tp1011
I1
s(S'37.843042'
p1012
S'-122.243480'
p1013
tp1014
I2
s(S'37.834723'
p1015
S'-122.256285'
p1016
tp1017
I1
s(S'37.816062'
p1018
S'-122.223846'
p1019
tp1020
I2
s(S'37.733324'
p1021
S'-122.212748'
p1022
tp1023
I0
s(S'37.749737'
p1024
S'-122.203358'
p1025
tp1026
I0
s(S'37.784811'
p1027
S'-122.189415'
p1028
tp1029
I1
s(S'37.773569'
p1030
S'-122.202504'
p1031
tp1032
I0
s(S'37.861927'
p1033
S'-122.281042'
p1034
tp1035
I1
s(S'37.773569'
p1036
S'-122.288156'
p1037
tp1038
I1
s(S'37.863052'
p1039
S'-122.260269'
p1040
tp1041
I0
s(S'37.741194'
p1042
S'-122.192260'
p1043
tp1044
I0
s(S'37.787284'
p1045
S'-122.207057'
p1046
tp1047
I0
s(S'37.777841'
p1048
S'-122.201935'
p1049
tp1050
I0
s(S'37.798525'
p1051
S'-122.191122'
p1052
tp1053
I1
s(S'37.785485'
p1054
S'-122.207057'
p1055
tp1056
I0
s(S'37.806844'
p1057
S'-122.268237'
p1058
tp1059
I0
s(S'37.794703'
p1060
S'-122.170918'
p1061
tp1062
I1
s(S'37.851136'
p1063
S'-122.232667'
p1064
tp1065
I2
s(S'37.800998'
p1066
S'-122.228968'
p1067
tp1068
I0
s(S'37.834948'
p1069
S'-122.279334'
p1070
tp1071
I1
s(S'37.720734'
p1072
S'-122.178317'
p1073
tp1074
I0
s(S'37.817861'
p1075
S'-122.269375'
p1076
tp1077
I0
s(S'37.805045'
p1078
S'-122.250025'
p1079
tp1080
I1
s(S'37.827079'
p1081
S'-122.255432'
p1082
tp1083
I1
s(S'37.825730'
p1084
S'-122.273928'
p1085
tp1086
I0
s(S'37.803472'
p1087
S'-122.285026'
p1088
tp1089
I0
s(S'37.849562'
p1090
S'-122.240350'
p1091
tp1092
I2
s(S'37.757606'
p1093
S'-122.211610'
p1094
tp1095
I0
s(S'37.849787'
p1096
S'-122.203358'
p1097
tp1098
I2
s(S'37.841018'
p1099
S'-122.219008'
p1100
tp1101
I2
s(S'37.810891'
p1102
S'-122.250879'
p1103
tp1104
I1
s(S'37.853384'
p1105
S'-122.222423'
p1106
tp1107
I2
s(S'37.851360'
p1108
S'-122.272221'
p1109
tp1110
I0
s(S'37.838770'
p1111
S'-122.209903'
p1112
tp1113
I2
s(S'37.821908'
p1114
S'-122.187138'
p1115
tp1116
I2
s(S'37.826404'
p1117
S'-122.270513'
p1118
tp1119
I0
s(S'37.854733'
p1120
S'-122.246610'
p1121
tp1122
I2
s(S'37.816287'
p1123
S'-122.216447'
p1124
tp1125
I2
s(S'37.794254'
p1126
S'-122.272790'
p1127
tp1128
I2
s(S'37.860803'
p1129
S'-122.222139'
p1130
tp1131
I2
s(S'37.779415'
p1132
S'-122.291286'
p1133
tp1134
I0
s(S'37.861703'
p1135
S'-122.225269'
p1136
tp1137
I2
s(S'37.777166'
p1138
S'-122.214456'
p1139
tp1140
I0
s(S'37.848662'
p1141
S'-122.252302'
p1142
tp1143
I2
s(S'37.848213'
p1144
S'-122.238927'
p1145
tp1146
I2
s(S'37.786160'
p1147
S'-122.166650'
p1148
tp1149
I1
s(S'37.845065'
p1150
S'-122.289009'
p1151
tp1152
I1
s(S'37.750187'
p1153
S'-122.191406'
p1154
tp1155
I0
s(S'37.818310'
p1156
S'-122.203927'
p1157
tp1158
I2
s(S'37.808418'
p1159
S'-122.279619'
p1160
tp1161
I0
s(S'37.819435'
p1162
S'-122.257708'
p1163
tp1164
I0
s(S'37.869797'
p1165
S'-122.272790'
p1166
tp1167
I0
s(S'37.816961'
p1168
S'-122.216732'
p1169
tp1170
I2
s(S'37.828877'
p1171
S'-122.264537'
p1172
tp1173
I0
s(S'37.836522'
p1174
S'-122.199090'
p1175
tp1176
I2
s(S'37.858555'
p1177
S'-122.232383'
p1178
tp1179
I2
s(S'37.758505'
p1180
S'-122.188276'
p1181
tp1182
I0
s(S'37.780539'
p1183
S'-122.290717'
p1184
tp1185
I1
s(S'37.875642'
p1186
S'-122.268806'
p1187
tp1188
I0
s(S'37.772220'
p1189
S'-122.207342'
p1190
tp1191
I0
s(S'37.827978'
p1192
S'-122.187138'
p1193
tp1194
I2
s(S'37.800324'
p1195
S'-122.190268'
p1196
tp1197
I1
s(S'37.796951'
p1198
S'-122.213602'
p1199
tp1200
I0
s(S'37.838320'
p1201
S'-122.195390'
p1202
tp1203
I2
s(S'37.850461'
p1204
S'-122.266814'
p1205
tp1206
I1
s(S'37.862602'
p1207
S'-122.223561'
p1208
tp1209
I2
s(S'37.800774'
p1210
S'-122.272790'
p1211
tp1212
I0
s(S'37.777166'
p1213
S'-122.286448'
p1214
tp1215
I0
s(S'37.778740'
p1216
S'-122.213886'
p1217
tp1218
I0
s(S'37.807519'
p1219
S'-122.255716'
p1220
tp1221
I0
s(S'37.877216'
p1222
S'-122.278196'
p1223
tp1224
I1
s(S'37.821908'
p1225
S'-122.195390'
p1226
tp1227
I2
s(S'37.806394'
p1228
S'-122.240066'
p1229
tp1230
I1
s(S'37.846414'
p1231
S'-122.246041'
p1232
tp1233
I1
s(S'37.866199'
p1234
S'-122.256854'
p1235
tp1236
I0
s(S'37.801898'
p1237
S'-122.271082'
p1238
tp1239
I0
s(S'37.807294'
p1240
S'-122.269660'
p1241
tp1242
I0
s(S'37.837646'
p1243
S'-122.288440'
p1244
tp1245
I1
s(S'37.794478'
p1246
S'-122.267668'
p1247
tp1248
I0
s(S'37.825055'
p1249
S'-122.268237'
p1250
tp1251
I0
s(S'37.773794'
p1252
S'-122.226691'
p1253
tp1254
I0
s(S'37.821908'
p1255
S'-122.287587'
p1256
tp1257
I1
s(S'37.810441'
p1258
S'-122.264253'
p1259
tp1260
I0
s(S'37.740519'
p1261
S'-122.192260'
p1262
tp1263
I0
s(S'37.845290'
p1264
S'-122.243480'
p1265
tp1266
I2
s(S'37.833599'
p1267
S'-122.294985'
p1268
tp1269
I1
s(S'37.747714'
p1270
S'-122.187992'
p1271
tp1272
I0
s(S'37.771321'
p1273
S'-122.197098'
p1274
tp1275
I0
s(S'37.769747'
p1276
S'-122.200797'
p1277
tp1278
I0
s(S'37.820559'
p1279
S'-122.281042'
p1280
tp1281
I0
s(S'37.811116'
p1282
S'-122.250025'
p1283
tp1284
I1
s(S'37.815388'
p1285
S'-122.246895'
p1286
tp1287
I1
s(S'37.781888'
p1288
S'-122.275066'
p1289
tp1290
I1
s(S'37.808418'
p1291
S'-122.237220'
p1292
tp1293
I2
s(S'37.788183'
p1294
S'-122.202220'
p1295
tp1296
I0
s(S'37.839669'
p1297
S'-122.281611'
p1298
tp1299
I1
s(S'37.841468'
p1300
S'-122.269375'
p1301
tp1302
I0
s(S'37.857431'
p1303
S'-122.233236'
p1304
tp1305
I2
s(S'37.836746'
p1306
S'-122.293562'
p1307
tp1308
I1
s(S'37.836971'
p1309
S'-122.203642'
p1310
tp1311
I2
s(S'37.826404'
p1312
S'-122.252302'
p1313
tp1314
I1
s(S'37.752885'
p1315
S'-122.164658'
p1316
tp1317
I0
s(S'37.769522'
p1318
S'-122.180024'
p1319
tp1320
I0
s(S'37.782562'
p1321
S'-122.174049'
p1322
tp1323
I1
s(S'37.859005'
p1324
S'-122.237505'
p1325
tp1326
I2
s(S'37.839220'
p1327
S'-122.193683'
p1328
tp1329
I2
s(S'37.826179'
p1330
S'-122.281326'
p1331
tp1332
I0
s(S'37.781438'
p1333
S'-122.171772'
p1334
tp1335
I1
s(S'37.799425'
p1336
S'-122.269375'
p1337
tp1338
I0
s(S'37.846414'
p1339
S'-122.277343'
p1340
tp1341
I0
s(S'37.752210'
p1342
S'-122.176325'
p1343
tp1344
I0
s(S'37.754459'
p1345
S'-122.204781'
p1346
tp1347
I0
s(S'37.856532'
p1348
S'-122.294700'
p1349
tp1350
I1
s(S'37.827079'
p1351
S'-122.208195'
p1352
tp1353
I2
s(S'37.814938'
p1354
S'-122.237789'
p1355
tp1356
I1
s(S'37.830002'
p1357
S'-122.286733'
p1358
tp1359
I1
s(S'37.797176'
p1360
S'-122.281895'
p1361
tp1362
I1
s(S'37.852035'
p1363
S'-122.271936'
p1364
tp1365
I0
s(S'37.863501'
p1366
S'-122.291570'
p1367
tp1368
I0
s(S'37.856307'
p1369
S'-122.240635'
p1370
tp1371
I2
s(S'37.794928'
p1372
S'-122.228114'
p1373
tp1374
I0
s(S'37.809542'
p1375
S'-122.189699'
p1376
tp1377
I2
s(S'37.831351'
p1378
S'-122.277912'
p1379
tp1380
I1
s(S'37.803247'
p1381
S'-122.227261'
p1382
tp1383
I1
s(S'37.866874'
p1384
S'-122.266245'
p1385
tp1386
I0
s(S'37.825280'
p1387
S'-122.214456'
p1388
tp1389
I2
s(S'37.831126'
p1390
S'-122.246326'
p1391
tp1392
I1
s(S'37.788858'
p1393
S'-122.212464'
p1394
tp1395
I0
s(S'37.783237'
p1396
S'-122.202789'
p1397
tp1398
I0
s(S'37.858555'
p1399
S'-122.271651'
p1400
tp1401
I1
s(S'37.842142'
p1402
S'-122.214456'
p1403
tp1404
I2
s(S'37.812015'
p1405
S'-122.209618'
p1406
tp1407
I2
s(S'37.810216'
p1408
S'-122.216447'
p1409
tp1410
I1
s(S'37.780314'
p1411
S'-122.190268'
p1412
tp1413
I1
s(S'37.809767'
p1414
S'-122.274497'
p1415
tp1416
I0
s(S'37.855183'
p1417
S'-122.220431'
p1418
tp1419
I2
s(S'37.821233'
p1420
S'-122.188276'
p1421
tp1422
I2
s(S'37.824381'
p1423
S'-122.188276'
p1424
tp1425
I2
s(S'37.779190'
p1426
S'-122.163805'
p1427
tp1428
I1
s(S'37.720734'
p1429
S'-122.192545'
p1430
tp1431
I0
s(S'37.815612'
p1432
S'-122.230960'
p1433
tp1434
I2
s(S'37.859454'
p1435
S'-122.269375'
p1436
tp1437
I0
s(S'37.791106'
p1438
S'-122.201081'
p1439
tp1440
I0
s(S'37.788633'
p1441
S'-122.197382'
p1442
tp1443
I0
s(S'37.767049'
p1444
S'-122.212748'
p1445
tp1446
I0
s(S'37.797851'
p1447
S'-122.201651'
p1448
tp1449
I1
s(S'37.831575'
p1450
S'-122.215878'
p1451
tp1452
I2
s(S'37.856082'
p1453
S'-122.292424'
p1454
tp1455
I1
s(S'37.847089'
p1456
S'-122.260838'
p1457
tp1458
I1
s(S'37.716462'
p1459
S'-122.187138'
p1460
tp1461
I0
s(S'37.791106'
p1462
S'-122.215878'
p1463
tp1464
I0
s(S'37.781213'
p1465
S'-122.200228'
p1466
tp1467
I0
s(S'37.833149'
p1468
S'-122.279619'
p1469
tp1470
I1
s(S'37.798750'
p1471
S'-122.275920'
p1472
tp1473
I1
s(S'37.715563'
p1474
S'-122.215025'
p1475
tp1476
I0
s(S'37.776042'
p1477
S'-122.188276'
p1478
tp1479
I1
s(S'37.792005'
p1480
S'-122.197098'
p1481
tp1482
I1
s(S'37.798750'
p1483
S'-122.188845'
p1484
tp1485
I1
s(S'37.796727'
p1486
S'-122.213886'
p1487
tp1488
I0
s(S'37.722308'
p1489
S'-122.215025'
p1490
tp1491
I0
s(S'37.773569'
p1492
S'-122.200512'
p1493
tp1494
I0
s(S'37.875192'
p1495
S'-122.271936'
p1496
tp1497
I0
s(S'37.777616'
p1498
S'-122.210187'
p1499
tp1500
I0
s(S'37.800099'
p1501
S'-122.226976'
p1502
tp1503
I0
s(S'37.816961'
p1504
S'-122.236366'
p1505
tp1506
I1
s(S'37.745016'
p1507
S'-122.191122'
p1508
tp1509
I0
s(S'37.826854'
p1510
S'-122.278481'
p1511
tp1512
I0
s(S'37.783911'
p1513
S'-122.233236'
p1514
tp1515
I0
s(S'37.780314'
p1516
S'-122.210187'
p1517
tp1518
I0
s(S'37.772445'
p1519
S'-122.184008'
p1520
tp1521
I0
s(S'37.803921'
p1522
S'-122.203358'
p1523
tp1524
I1
s(S'37.825280'
p1525
S'-122.277627'
p1526
tp1527
I0
s(S'37.750412'
p1528
S'-122.191122'
p1529
tp1530
I0
s(S'37.769747'
p1531
S'-122.222139'
p1532
tp1533
I0
s(S'37.780314'
p1534
S'-122.206203'
p1535
tp1536
I0
s(S'37.797851'
p1537
S'-122.213317'
p1538
tp1539
I0
s(S'37.809767'
p1540
S'-122.190268'
p1541
tp1542
I2
s(S'37.784811'
p1543
S'-122.181447'
p1544
tp1545
I1
s(S'37.796951'
p1546
S'-122.172910'
p1547
tp1548
I2
s(S'37.867548'
p1549
S'-122.220147'
p1550
tp1551
I2
s(S'37.767724'
p1552
S'-122.157829'
p1553
tp1554
I0
s(S'37.773119'
p1555
S'-122.188276'
p1556
tp1557
I1
s(S'37.825505'
p1558
S'-122.186284'
p1559
tp1560
I2
s(S'37.803472'
p1561
S'-122.194252'
p1562
tp1563
I1
s(S'37.764126'
p1564
S'-122.160674'
p1565
tp1566
I0
s(S'37.821233'
p1567
S'-122.201366'
p1568
tp1569
I2
s(S'37.754683'
p1570
S'-122.186569'
p1571
tp1572
I0
s(S'37.830901'
p1573
S'-122.256001'
p1574
tp1575
I1
s(S'37.801673'
p1576
S'-122.281895'
p1577
tp1578
I0
s(S'37.796951'
p1579
S'-122.189130'
p1580
tp1581
I1
s(S'37.730402'
p1582
S'-122.188845'
p1583
tp1584
I0
s(S'37.834948'
p1585
S'-122.189130'
p1586
tp1587
I2
s(S'37.787284'
p1588
S'-122.193114'
p1589
tp1590
I1
s(S'37.800998'
p1591
S'-122.225838'
p1592
tp1593
I1
s(S'37.775368'
p1594
S'-122.283034'
p1595
tp1596
I1
s(S'37.815612'
p1597
S'-122.262830'
p1598
tp1599
I0
s(S'37.862602'
p1600
S'-122.279050'
p1601
tp1602
I1
s(S'37.789307'
p1603
S'-122.276773'
p1604
tp1605
I1
s(S'37.816512'
p1606
S'-122.221854'
p1607
tp1608
I2
s(S'37.839444'
p1609
S'-122.222423'
p1610
tp1611
I2
s(S'37.804371'
p1612
S'-122.197951'
p1613
tp1614
I1
s(S'37.805495'
p1615
S'-122.202504'
p1616
tp1617
I1
s(S'37.862602'
p1618
S'-122.218155'
p1619
tp1620
I2
s(S'37.836746'
p1621
S'-122.293278'
p1622
tp1623
I1
s(S'37.789307'
p1624
S'-122.199374'
p1625
tp1626
I0
s(S'37.812914'
p1627
S'-122.278765'
p1628
tp1629
I0
s(S'37.810216'
p1630
S'-122.262546'
p1631
tp1632
I0
s(S'37.811565'
p1633
S'-122.215878'
p1634
tp1635
I1
s(S'37.781888'
p1636
S'-122.215309'
p1637
tp1638
I0
s(S'37.775593'
p1639
S'-122.196528'
p1640
tp1641
I1
s(S'37.790431'
p1642
S'-122.215594'
p1643
tp1644
I0
s(S'37.730402'
p1645
S'-122.208764'
p1646
tp1647
I0
s(S'37.824606'
p1648
S'-122.289009'
p1649
tp1650
I1
s(S'37.872944'
p1651
S'-122.278765'
p1652
tp1653
I1
s(S'37.854508'
p1654
S'-122.275920'
p1655
tp1656
I1
s(S'37.857881'
p1657
S'-122.245472'
p1658
tp1659
I2
s(S'37.771770'
p1660
S'-122.208764'
p1661
tp1662
I0
s(S'37.857656'
p1663
S'-122.282749'
p1664
tp1665
I1
s(S'37.854283'
p1666
S'-122.286448'
p1667
tp1668
I1
s(S'37.850236'
p1669
S'-122.267383'
p1670
tp1671
I1
s(S'37.826404'
p1672
S'-122.277912'
p1673
tp1674
I0
s(S'37.786834'
p1675
S'-122.226976'
p1676
tp1677
I0
s(S'37.861253'
p1678
S'-122.274212'
p1679
tp1680
I1
s(S'37.762103'
p1681
S'-122.203642'
p1682
tp1683
I0
s(S'37.804371'
p1684
S'-122.199374'
p1685
tp1686
I1
s(S'37.853609'
p1687
S'-122.281611'
p1688
tp1689
I1
s(S'37.756482'
p1690
S'-122.168927'
p1691
tp1692
I0
s(S'37.857206'
p1693
S'-122.259700'
p1694
tp1695
I1
s(S'37.790881'
p1696
S'-122.184008'
p1697
tp1698
I1
s(S'37.869122'
p1699
S'-122.240919'
p1700
tp1701
I2
s(S'37.781663'
p1702
S'-122.282465'
p1703
tp1704
I1
s(S'37.772220'
p1705
S'-122.200797'
p1706
tp1707
I0
s(S'37.821008'
p1708
S'-122.259985'
p1709
tp1710
I0
s(S'37.784136'
p1711
S'-122.213033'
p1712
tp1713
I0
s(S'37.757156'
p1714
S'-122.210472'
p1715
tp1716
I0
s(S'37.830676'
p1717
S'-122.215309'
p1718
tp1719
I2
s(S'37.823706'
p1720
S'-122.192829'
p1721
tp1722
I2
s(S'37.742767'
p1723
S'-122.203642'
p1724
tp1725
I0
s(S'37.780764'
p1726
S'-122.289009'
p1727
tp1728
I1
s(S'37.809542'
p1729
S'-122.239497'
p1730
tp1731
I2
s(S'37.840119'
p1732
S'-122.263968'
p1733
tp1734
I1
s(S'37.808867'
p1735
S'-122.256285'
p1736
tp1737
I0
s(S'37.809767'
p1738
S'-122.255432'
p1739
tp1740
I1
s(S'37.817636'
p1741
S'-122.191691'
p1742
tp1743
I2
s(S'37.731526'
p1744
S'-122.187992'
p1745
tp1746
I0
s(S'37.826629'
p1747
S'-122.266245'
p1748
tp1749
I0
s(S'37.770646'
p1750
S'-122.202504'
p1751
tp1752
I0
s(S'37.752210'
p1753
S'-122.195390'
p1754
tp1755
I0
s(S'37.824830'
p1756
S'-122.193683'
p1757
tp1758
I2
s(S'37.755583'
p1759
S'-122.175187'
p1760
tp1761
I0
s(S'37.732200'
p1762
S'-122.192260'
p1763
tp1764
I0
s(S'37.858555'
p1765
S'-122.269375'
p1766
tp1767
I0
s(S'37.835173'
p1768
S'-122.265107'
p1769
tp1770
I0
s(S'37.877666'
p1771
S'-122.278481'
p1772
tp1773
I1
s(S'37.822357'
p1774
S'-122.271936'
p1775
tp1776
I0
s(S'37.790207'
p1777
S'-122.200228'
p1778
tp1779
I0
s(S'37.788183'
p1780
S'-122.222139'
p1781
tp1782
I0
s(S'37.767049'
p1783
S'-122.166366'
p1784
tp1785
I1
s(S'37.844840'
p1786
S'-122.233521'
p1787
tp1788
I2
s(S'37.836746'
p1789
S'-122.222423'
p1790
tp1791
I2
s(S'37.783686'
p1792
S'-122.201935'
p1793
tp1794
I0
s(S'37.843491'
p1795
S'-122.275635'
p1796
tp1797
I0
s(S'37.805720'
p1798
S'-122.217870'
p1799
tp1800
I1
s(S'37.806170'
p1801
S'-122.203073'
p1802
tp1803
I1
s(S'37.853834'
p1804
S'-122.259985'
p1805
tp1806
I1
s(S'37.791780'
p1807
S'-122.228399'
p1808
tp1809
I0
s(S'37.758505'
p1810
S'-122.184577'
p1811
tp1812
I0
s(S'37.829552'
p1813
S'-122.292424'
p1814
tp1815
I1
s(S'37.782562'
p1816
S'-122.236651'
p1817
tp1818
I0
s(S'37.778515'
p1819
S'-122.180309'
p1820
tp1821
I0
s(S'37.846189'
p1822
S'-122.283034'
p1823
tp1824
I1
s(S'37.837871'
p1825
S'-122.205065'
p1826
tp1827
I2
s(S'37.809992'
p1828
S'-122.190268'
p1829
tp1830
I2
s(S'37.849787'
p1831
S'-122.234659'
p1832
tp1833
I2
s(S'37.765475'
p1834
S'-122.175756'
p1835
tp1836
I0
s(S'37.769297'
p1837
S'-122.182016'
p1838
tp1839
I0
s(S'37.811341'
p1840
S'-122.230960'
p1841
tp1842
I2
s(S'37.772895'
p1843
S'-122.194537'
p1844
tp1845
I1
s(S'37.867998'
p1846
S'-122.219578'
p1847
tp1848
I2
s(S'37.784811'
p1849
S'-122.226407'
p1850
tp1851
I0
s(S'37.815612'
p1852
S'-122.216732'
p1853
tp1854
I2
s(S'37.823032'
p1855
S'-122.269090'
p1856
tp1857
I0
s(S'37.850461'
p1858
S'-122.270798'
p1859
tp1860
I1
s(S'37.861028'
p1861
S'-122.289863'
p1862
tp1863
I1
s(S'37.842367'
p1864
S'-122.209903'
p1865
tp1866
I2
s(S'37.789982'
p1867
S'-122.230391'
p1868
tp1869
I0
s(S'37.827304'
p1870
S'-122.292709'
p1871
tp1872
I1
s(S'37.851136'
p1873
S'-122.289294'
p1874
tp1875
I1
s(S'37.859229'
p1876
S'-122.240635'
p1877
tp1878
I2
s(S'37.751761'
p1879
S'-122.187992'
p1880
tp1881
I0
s(S'37.748838'
p1882
S'-122.178601'
p1883
tp1884
I0
s(S'37.720059'
p1885
S'-122.177748'
p1886
tp1887
I0
s(S'37.779640'
p1888
S'-122.190837'
p1889
tp1890
I1
s(S'37.784361'
p1891
S'-122.190553'
p1892
tp1893
I1
s(S'37.861703'
p1894
S'-122.264253'
p1895
tp1896
I0
s(S'37.803921'
p1897
S'-122.263968'
p1898
tp1899
I0
s(S'37.813814'
p1900
S'-122.247749'
p1901
tp1902
I1
s(S'37.842142'
p1903
S'-122.212464'
p1904
tp1905
I2
s(S'37.839220'
p1906
S'-122.303806'
p1907
tp1908
I1
s(S'37.867548'
p1909
S'-122.265960'
p1910
tp1911
I0
s(S'37.841468'
p1912
S'-122.272221'
p1913
tp1914
I0
s(S'37.843491'
p1915
S'-122.221000'
p1916
tp1917
I2
s(S'37.752885'
p1918
S'-122.186000'
p1919
tp1920
I0
s(S'37.863501'
p1921
S'-122.271367'
p1922
tp1923
I0
s(S'37.783462'
p1924
S'-122.278196'
p1925
tp1926
I1
s(S'37.858555'
p1927
S'-122.233236'
p1928
tp1929
I2
s(S'37.843267'
p1930
S'-122.211610'
p1931
tp1932
I2
s(S'37.851810'
p1933
S'-122.276204'
p1934
tp1935
I0
s(S'37.827753'
p1936
S'-122.254293'
p1937
tp1938
I1
s(S'37.824156'
p1939
S'-122.213602'
p1940
tp1941
I2
s(S'37.723882'
p1942
S'-122.181162'
p1943
tp1944
I0
s(S'37.805045'
p1945
S'-122.233805'
p1946
tp1947
I1
s(S'37.806394'
p1948
S'-122.271936'
p1949
tp1950
I0
s(S'37.793804'
p1951
S'-122.195390'
p1952
tp1953
I1
s(S'37.774918'
p1954
S'-122.221000'
p1955
tp1956
I0
s(S'37.758955'
p1957
S'-122.187138'
p1958
tp1959
I0
s(S'37.816062'
p1960
S'-122.266529'
p1961
tp1962
I0
s(S'37.861478'
p1963
S'-122.231244'
p1964
tp1965
I2
s(S'37.800998'
p1966
S'-122.178601'
p1967
tp1968
I2
s(S'37.818310'
p1969
S'-122.270229'
p1970
tp1971
I0
s(S'37.835397'
p1972
S'-122.259131'
p1973
tp1974
I1
s(S'37.848887'
p1975
S'-122.232098'
p1976
tp1977
I2
s(S'37.847538'
p1978
S'-122.241488'
p1979
tp1980
I2
s(S'37.759405'
p1981
S'-122.194821'
p1982
tp1983
I0
s(S'37.755583'
p1984
S'-122.158967'
p1985
tp1986
I0
s(S'37.824606'
p1987
S'-122.204781'
p1988
tp1989
I2
s(S'37.817636'
p1990
S'-122.248033'
p1991
tp1992
I1
s(S'37.818985'
p1993
S'-122.249741'
p1994
tp1995
I1
s(S'37.826854'
p1996
S'-122.263684'
p1997
tp1998
I0
s(S'37.803921'
p1999
S'-122.209049'
p2000
tp2001
I1
s(S'37.836746'
p2002
S'-122.296408'
p2003
tp2004
I1
s(S'37.847089'
p2005
S'-122.286164'
p2006
tp2007
I1
s(S'37.838320'
p2008
S'-122.191976'
p2009
tp2010
I2
s(S'37.827753'
p2011
S'-122.267098'
p2012
tp2013
I0
s(S'37.736247'
p2014
S'-122.213602'
p2015
tp2016
I0
s(S'37.852709'
p2017
S'-122.226976'
p2018
tp2019
I2
s(S'37.845290'
p2020
S'-122.298400'
p2021
tp2022
I1
s(S'37.732875'
p2023
S'-122.213886'
p2024
tp2025
I0
s(S'37.827079'
p2026
S'-122.298115'
p2027
tp2028
I1
s(S'37.823931'
p2029
S'-122.282180'
p2030
tp2031
I0
s(S'37.807294'
p2032
S'-122.264822'
p2033
tp2034
I0
s(S'37.794928'
p2035
S'-122.180878'
p2036
tp2037
I1
s(S'37.861478'
p2038
S'-122.258277'
p2039
tp2040
I1
s(S'37.779415'
p2041
S'-122.222423'
p2042
tp2043
I0
s(S'37.812690'
p2044
S'-122.227830'
p2045
tp2046
I2
s(S'37.798525'
p2047
S'-122.186000'
p2048
tp2049
I1
s(S'37.809767'
p2050
S'-122.230391'
p2051
tp2052
I2
s(S'37.836297'
p2053
S'-122.194821'
p2054
tp2055
I2
s(S'37.863276'
p2056
S'-122.262830'
p2057
tp2058
I0
s(S'37.792005'
p2059
S'-122.212748'
p2060
tp2061
I0
s(S'37.784586'
p2062
S'-122.285026'
p2063
tp2064
I1
s(S'37.839894'
p2065
S'-122.201651'
p2066
tp2067
I2
s(S'37.795378'
p2068
S'-122.208480'
p2069
tp2070
I0
s(S'37.815163'
p2071
S'-122.254293'
p2072
tp2073
I0
s(S'37.840344'
p2074
S'-122.198520'
p2075
tp2076
I2
s(S'37.782787'
p2077
S'-122.197951'
p2078
tp2079
I1
s(S'37.854508'
p2080
S'-122.272221'
p2081
tp2082
I1
s(S'37.808193'
p2083
S'-122.239212'
p2084
tp2085
I1
s(S'37.816961'
p2086
S'-122.190553'
p2087
tp2088
I2
s(S'37.804596'
p2089
S'-122.183439'
p2090
tp2091
I2
s(S'37.865525'
p2092
S'-122.281611'
p2093
tp2094
I1
s(S'37.794029'
p2095
S'-122.265391'
p2096
tp2097
I0
s(S'37.803247'
p2098
S'-122.219578'
p2099
tp2100
I1
s(S'37.754908'
p2101
S'-122.194537'
p2102
tp2103
I0
s(S'37.834048'
p2104
S'-122.218155'
p2105
tp2106
I2
s(S'37.802572'
p2107
S'-122.214456'
p2108
tp2109
I1
s(S'37.776492'
p2110
S'-122.171772'
p2111
tp2112
I0
s(S'37.785935'
p2113
S'-122.163520'
p2114
tp2115
I1
s(S'37.766375'
p2116
S'-122.157829'
p2117
tp2118
I0
s(S'37.866874'
p2119
S'-122.286164'
p2120
tp2121
I1
s(S'37.727029'
p2122
S'-122.199943'
p2123
tp2124
I0
s(S'37.801448'
p2125
S'-122.192829'
p2126
tp2127
I1
s(S'37.841693'
p2128
S'-122.236082'
p2129
tp2130
I2
s(S'37.809542'
p2131
S'-122.219293'
p2132
tp2133
I1
s(S'37.763452'
p2134
S'-122.203073'
p2135
tp2136
I0
s(S'37.840344'
p2137
S'-122.217586'
p2138
tp2139
I2
s(S'37.761878'
p2140
S'-122.160390'
p2141
tp2142
I0
s(S'37.809767'
p2143
S'-122.275635'
p2144
tp2145
I0
s(S'37.768173'
p2146
S'-122.220716'
p2147
tp2148
I0
s(S'37.720959'
p2149
S'-122.177463'
p2150
tp2151
I0
s(S'37.781438'
p2152
S'-122.283887'
p2153
tp2154
I1
s(S'37.803247'
p2155
S'-122.211895'
p2156
tp2157
I1
s(S'37.839669'
p2158
S'-122.251448'
p2159
tp2160
I1
s(S'37.795378'
p2161
S'-122.186569'
p2162
tp2163
I1
s(S'37.850911'
p2164
S'-122.249171'
p2165
tp2166
I2
s(S'37.866199'
p2167
S'-122.286733'
p2168
tp2169
I1
s(S'37.729727'
p2170
S'-122.199943'
p2171
tp2172
I0
s(S'37.795827'
p2173
S'-122.176325'
p2174
tp2175
I2
s(S'37.724331'
p2176
S'-122.221569'
p2177
tp2178
I0
s(S'37.777166'
p2179
S'-122.164658'
p2180
tp2181
I1
s(S'37.720284'
p2182
S'-122.207626'
p2183
tp2184
I0
s(S'37.844616'
p2185
S'-122.264537'
p2186
tp2187
I1
s(S'37.765250'
p2188
S'-122.169211'
p2189
tp2190
I0
s(S'37.778291'
p2191
S'-122.201081'
p2192
tp2193
I0
s(S'37.783911'
p2194
S'-122.289009'
p2195
tp2196
I1
s(S'37.859454'
p2197
S'-122.260554'
p2198
tp2199
I1
s(S'37.770197'
p2200
S'-122.224700'
p2201
tp2202
I0
s(S'37.806394'
p2203
S'-122.210187'
p2204
tp2205
I1
s(S'37.787059'
p2206
S'-122.275066'
p2207
tp2208
I1
s(S'37.719385'
p2209
S'-122.172626'
p2210
tp2211
I1
s(S'37.848887'
p2212
S'-122.204212'
p2213
tp2214
I2
s(S'37.764126'
p2215
S'-122.190837'
p2216
tp2217
I0
s(S'37.769297'
p2218
S'-122.173195'
p2219
tp2220
I0
s(S'37.807069'
p2221
S'-122.238643'
p2222
tp2223
I1
s(S'37.853159'
p2224
S'-122.240350'
p2225
tp2226
I2
s(S'37.733100'
p2227
S'-122.199374'
p2228
tp2229
I0
s(S'37.778515'
p2230
S'-122.168642'
p2231
tp2232
I1
s(S'37.788408'
p2233
S'-122.185715'
p2234
tp2235
I1
s(S'37.856756'
p2236
S'-122.285879'
p2237
tp2238
I1
s(S'37.793804'
p2239
S'-122.214456'
p2240
tp2241
I0
s(S'37.763901'
p2242
S'-122.171772'
p2243
tp2244
I0
s(S'37.836746'
p2245
S'-122.279050'
p2246
tp2247
I1
s(S'37.762103'
p2248
S'-122.158113'
p2249
tp2250
I0
s(S'37.822132'
p2251
S'-122.266245'
p2252
tp2253
I0
s(S'37.786609'
p2254
S'-122.209618'
p2255
tp2256
I0
s(S'37.770871'
p2257
S'-122.179455'
p2258
tp2259
I0
s(S'37.843716'
p2260
S'-122.268237'
p2261
tp2262
I0
s(S'37.798076'
p2263
S'-122.219008'
p2264
tp2265
I0
s(S'37.783012'
p2266
S'-122.220431'
p2267
tp2268
I0
s(S'37.830901'
p2269
S'-122.201366'
p2270
tp2271
I2
s(S'37.803472'
p2272
S'-122.242342'
p2273
tp2274
I1
s(S'37.773119'
p2275
S'-122.203073'
p2276
tp2277
I0
s(S'37.802572'
p2278
S'-122.280188'
p2279
tp2280
I0
s(S'37.853609'
p2281
S'-122.267952'
p2282
tp2283
I1
s(S'37.857656'
p2284
S'-122.287587'
p2285
tp2286
I1
s(S'37.851810'
p2287
S'-122.262546'
p2288
tp2289
I1
s(S'37.846639'
p2290
S'-122.279904'
p2291
tp2292
I1
s(S'37.771546'
p2293
S'-122.279619'
p2294
tp2295
I1
s(S'37.846414'
p2296
S'-122.208480'
p2297
tp2298
I2
s(S'37.731526'
p2299
S'-122.188276'
p2300
tp2301
I0
s(S'37.776942'
p2302
S'-122.186854'
p2303
tp2304
I1
s(S'37.847089'
p2305
S'-122.261692'
p2306
tp2307
I1
s(S'37.867099'
p2308
S'-122.264822'
p2309
tp2310
I0
s(S'37.846189'
p2311
S'-122.213886'
p2312
tp2313
I2
s(S'37.873619'
p2314
S'-122.262546'
p2315
tp2316
I2
s(S'37.854958'
p2317
S'-122.286733'
p2318
tp2319
I1
s(S'37.795602'
p2320
S'-122.210472'
p2321
tp2322
I0
s(S'37.825055'
p2323
S'-122.193398'
p2324
tp2325
I2
s(S'37.846864'
p2326
S'-122.252586'
p2327
tp2328
I2
s(S'37.783237'
p2329
S'-122.231244'
p2330
tp2331
I0
s(S'37.851360'
p2332
S'-122.243765'
p2333
tp2334
I2
s(S'37.879239'
p2335
S'-122.276489'
p2336
tp2337
I1
s(S'37.832025'
p2338
S'-122.258277'
p2339
tp2340
I1
s(S'37.785035'
p2341
S'-122.278481'
p2342
tp2343
I1
s(S'37.830676'
p2344
S'-122.256285'
p2345
tp2346
I1
s(S'37.738271'
p2347
S'-122.199659'
p2348
tp2349
I0
s(S'37.776042'
p2350
S'-122.190837'
p2351
tp2352
I1
s(S'37.774693'
p2353
S'-122.233521'
p2354
tp2355
I0
s(S'37.841918'
p2356
S'-122.213602'
p2357
tp2358
I2
s(S'37.801673'
p2359
S'-122.219008'
p2360
tp2361
I1
s(S'37.849787'
p2362
S'-122.285595'
p2363
tp2364
I1
s(S'37.858330'
p2365
S'-122.254293'
p2366
tp2367
I1
s(S'37.831800'
p2368
S'-122.271651'
p2369
tp2370
I0
s(S'37.802572'
p2371
S'-122.278196'
p2372
tp2373
I1
s(S'37.794703'
p2374
S'-122.162382'
p2375
tp2376
I1
s(S'37.854058'
p2377
S'-122.233236'
p2378
tp2379
I2
s(S'37.848662'
p2380
S'-122.225553'
p2381
tp2382
I2
s(S'37.807743'
p2383
S'-122.275635'
p2384
tp2385
I0
s(S'37.849337'
p2386
S'-122.244619'
p2387
tp2388
I2
s(S'37.792005'
p2389
S'-122.187423'
p2390
tp2391
I1
s(S'37.866874'
p2392
S'-122.285879'
p2393
tp2394
I1
s(S'37.798975'
p2395
S'-122.185715'
p2396
tp2397
I2
s(S'37.749287'
p2398
S'-122.172626'
p2399
tp2400
I0
s(S'37.832700'
p2401
S'-122.190268'
p2402
tp2403
I2
s(S'37.814938'
p2404
S'-122.201651'
p2405
tp2406
I2
s(S'37.820109'
p2407
S'-122.276204'
p2408
tp2409
I0
s(S'37.829552'
p2410
S'-122.285310'
p2411
tp2412
I1
s(S'37.806394'
p2413
S'-122.184008'
p2414
tp2415
I2
s(S'37.849562'
p2416
S'-122.241488'
p2417
tp2418
I2
s(S'37.838095'
p2419
S'-122.295839'
p2420
tp2421
I1
s(S'37.870246'
p2422
S'-122.261976'
p2423
tp2424
I2
s(S'37.823032'
p2425
S'-122.255432'
p2426
tp2427
I1
s(S'37.852035'
p2428
S'-122.281042'
p2429
tp2430
I0
s(S'37.803022'
p2431
S'-122.278481'
p2432
tp2433
I0
s(S'37.853609'
p2434
S'-122.254578'
p2435
tp2436
I1
s(S'37.799874'
p2437
S'-122.176040'
p2438
tp2439
I2
s(S'37.865525'
p2440
S'-122.261976'
p2441
tp2442
I0
s(S'37.727704'
p2443
S'-122.197098'
p2444
tp2445
I0
s(S'37.836746'
p2446
S'-122.206488'
p2447
tp2448
I2
s(S'37.838995'
p2449
S'-122.275351'
p2450
tp2451
I0
s(S'37.836971'
p2452
S'-122.254863'
p2453
tp2454
I1
s(S'37.730851'
p2455
S'-122.203073'
p2456
tp2457
I0
s(S'37.815612'
p2458
S'-122.238074'
p2459
tp2460
I1
s(S'37.854508'
p2461
S'-122.223277'
p2462
tp2463
I2
s(S'37.790207'
p2464
S'-122.193398'
p2465
tp2466
I1
s(S'37.803247'
p2467
S'-122.210756'
p2468
tp2469
I1
s(S'37.849112'
p2470
S'-122.257139'
p2471
tp2472
I1
s(S'37.798076'
p2473
S'-122.200797'
p2474
tp2475
I1
s(S'37.746589'
p2476
S'-122.173764'
p2477
tp2478
I0
s(S'37.807294'
p2479
S'-122.244334'
p2480
tp2481
I1
s(S'37.806394'
p2482
S'-122.269090'
p2483
tp2484
I0
s(S'37.801223'
p2485
S'-122.219008'
p2486
tp2487
I1
s(S'37.856082'
p2488
S'-122.286733'
p2489
tp2490
I1
s(S'37.758955'
p2491
S'-122.180593'
p2492
tp2493
I0
s(S'37.777841'
p2494
S'-122.212464'
p2495
tp2496
I0
s(S'37.825730'
p2497
S'-122.281042'
p2498
tp2499
I0
s(S'37.848213'
p2500
S'-122.249456'
p2501
tp2502
I2
s(S'37.811341'
p2503
S'-122.228968'
p2504
tp2505
I2
s(S'37.835173'
p2506
S'-122.198805'
p2507
tp2508
I2
s(S'37.779190'
p2509
S'-122.175187'
p2510
tp2511
I0
s(S'37.876766'
p2512
S'-122.277058'
p2513
tp2514
I1
s(S'37.718036'
p2515
S'-122.205919'
p2516
tp2517
I0
s(S'37.843716'
p2518
S'-122.250594'
p2519
tp2520
I1
s(S'37.836971'
p2521
S'-122.301814'
p2522
tp2523
I1
s(S'37.869122'
p2524
S'-122.255147'
p2525
tp2526
I0
s(S'37.777391'
p2527
S'-122.291001'
p2528
tp2529
I0
s(S'37.859679'
p2530
S'-122.287302'
p2531
tp2532
I1
s(S'37.758505'
p2533
S'-122.171488'
p2534
tp2535
I0
s(S'37.832025'
p2536
S'-122.271651'
p2537
tp2538
I0
s(S'37.860129'
p2539
S'-122.210187'
p2540
tp2541
I2
s(S'37.803022'
p2542
S'-122.243765'
p2543
tp2544
I1
s(S'37.817861'
p2545
S'-122.223846'
p2546
tp2547
I2
s(S'37.856532'
p2548
S'-122.224984'
p2549
tp2550
I2
s(S'37.779190'
p2551
S'-122.179740'
p2552
tp2553
I0
s(S'37.872944'
p2554
S'-122.279904'
p2555
tp2556
I1
s(S'37.767274'
p2557
S'-122.180593'
p2558
tp2559
I0
s(S'37.860803'
p2560
S'-122.277343'
p2561
tp2562
I1
s(S'37.776042'
p2563
S'-122.179171'
p2564
tp2565
I0
s(S'37.771096'
p2566
S'-122.220716'
p2567
tp2568
I0
s(S'37.875642'
p2569
S'-122.269944'
p2570
tp2571
I0
s(S'37.836746'
p2572
S'-122.295839'
p2573
tp2574
I1
s(S'37.727929'
p2575
S'-122.181162'
p2576
tp2577
I0
s(S'37.789532'
p2578
S'-122.276773'
p2579
tp2580
I1
s(S'37.780539'
p2581
S'-122.291855'
p2582
tp2583
I1
s(S'37.801673'
p2584
S'-122.175471'
p2585
tp2586
I2
s(S'37.785935'
p2587
S'-122.225553'
p2588
tp2589
I0
s(S'37.777616'
p2590
S'-122.234944'
p2591
tp2592
I0
s(S'37.812914'
p2593
S'-122.263968'
p2594
tp2595
I0
s(S'37.816737'
p2596
S'-122.234944'
p2597
tp2598
I1
s(S'37.828877'
p2599
S'-122.215309'
p2600
tp2601
I2
s(S'37.835173'
p2602
S'-122.219008'
p2603
tp2604
I2
s(S'37.828653'
p2605
S'-122.256001'
p2606
tp2607
I1
s(S'37.776042'
p2608
S'-122.284172'
p2609
tp2610
I0
s(S'37.791780'
p2611
S'-122.182016'
p2612
tp2613
I1
s(S'37.868223'
p2614
S'-122.287302'
p2615
tp2616
I1
s(S'37.826629'
p2617
S'-122.267952'
p2618
tp2619
I0
s(S'37.808867'
p2620
S'-122.221285'
p2621
tp2622
I1
s(S'37.806844'
p2623
S'-122.240635'
p2624
tp2625
I1
s(S'37.851136'
p2626
S'-122.283318'
p2627
tp2628
I0
s(S'37.830451'
p2629
S'-122.210187'
p2630
tp2631
I2
s(S'37.836522'
p2632
S'-122.251163'
p2633
tp2634
I2
s(S'37.863501'
p2635
S'-122.270229'
p2636
tp2637
I0
s(S'37.741643'
p2638
S'-122.198236'
p2639
tp2640
I0
s(S'37.841468'
p2641
S'-122.214171'
p2642
tp2643
I2
s(S'37.841918'
p2644
S'-122.266245'
p2645
tp2646
I1
s(S'37.856082'
p2647
S'-122.289294'
p2648
tp2649
I1
s(S'37.714888'
p2650
S'-122.172626'
p2651
tp2652
I0
s(S'37.822357'
p2653
S'-122.259700'
p2654
tp2655
I0
s(S'37.793129'
p2656
S'-122.201935'
p2657
tp2658
I0
s(S'37.847313'
p2659
S'-122.279334'
p2660
tp2661
I1
s(S'37.836971'
p2662
S'-122.187707'
p2663
tp2664
I2
s(S'37.847313'
p2665
S'-122.282180'
p2666
tp2667
I1
s(S'37.782113'
p2668
S'-122.235513'
p2669
tp2670
I0
s(S'37.820109'
p2671
S'-122.197382'
p2672
tp2673
I2
s(S'37.791556'
p2674
S'-122.205065'
p2675
tp2676
I0
s(S'37.834723'
p2677
S'-122.213033'
p2678
tp2679
I2
s(S'37.780314'
p2680
S'-122.187992'
p2681
tp2682
I1
s(S'37.829102'
p2683
S'-122.194537'
p2684
tp2685
I2
s(S'37.823706'
p2686
S'-122.267098'
p2687
tp2688
I0
s(S'37.801448'
p2689
S'-122.219008'
p2690
tp2691
I1
s(S'37.854058'
p2692
S'-122.225553'
p2693
tp2694
I2
s(S'37.838995'
p2695
S'-122.203358'
p2696
tp2697
I2
s(S'37.812240'
p2698
S'-122.239212'
p2699
tp2700
I2
s(S'37.849787'
p2701
S'-122.236082'
p2702
tp2703
I2
s(S'37.853384'
p2704
S'-122.256285'
p2705
tp2706
I1
s(S'37.731975'
p2707
S'-122.184293'
p2708
tp2709
I0
s(S'37.825280'
p2710
S'-122.271651'
p2711
tp2712
I0
s(S'37.798300'
p2713
S'-122.194537'
p2714
tp2715
I1
s(S'37.850461'
p2716
S'-122.281895'
p2717
tp2718
I0
s(S'37.778965'
p2719
S'-122.198805'
p2720
tp2721
I0
s(S'37.820334'
p2722
S'-122.261407'
p2723
tp2724
I0
s(S'37.816961'
p2725
S'-122.238643'
p2726
tp2727
I1
s(S'37.723432'
p2728
S'-122.190837'
p2729
tp2730
I0
s(S'37.842367'
p2731
S'-122.290148'
p2732
tp2733
I1
s(S'37.864401'
p2734
S'-122.271651'
p2735
tp2736
I0
s(S'37.820783'
p2737
S'-122.256285'
p2738
tp2739
I0
s(S'37.785260'
p2740
S'-122.214171'
p2741
tp2742
I0
s(S'37.832700'
p2743
S'-122.275635'
p2744
tp2745
I0
s(S'37.723207'
p2746
S'-122.200797'
p2747
tp2748
I0
s(S'37.842367'
p2749
S'-122.222992'
p2750
tp2751
I2
s(S'37.783686'
p2752
S'-122.278196'
p2753
tp2754
I1
s(S'37.749063'
p2755
S'-122.191406'
p2756
tp2757
I0
s(S'37.824606'
p2758
S'-122.205065'
p2759
tp2760
I2
s(S'37.858780'
p2761
S'-122.272505'
p2762
tp2763
I1
s(S'37.746589'
p2764
S'-122.196244'
p2765
tp2766
I0
s(S'37.813814'
p2767
S'-122.245757'
p2768
tp2769
I1
s(S'37.864401'
p2770
S'-122.286448'
p2771
tp2772
I1
s(S'37.859454'
p2773
S'-122.236082'
p2774
tp2775
I2
s(S'37.809317'
p2776
S'-122.250879'
p2777
tp2778
I1
s(S'37.801223'
p2779
S'-122.282180'
p2780
tp2781
I1
s(S'37.795827'
p2782
S'-122.197098'
p2783
tp2784
I1
s(S'37.847313'
p2785
S'-122.214456'
p2786
tp2787
I2
s(S'37.795378'
p2788
S'-122.191122'
p2789
tp2790
I1
s(S'37.778740'
p2791
S'-122.280473'
p2792
tp2793
I0
s(S'37.800099'
p2794
S'-122.177748'
p2795
tp2796
I2
s(S'37.819659'
p2797
S'-122.279904'
p2798
tp2799
I0
s(S'37.791556'
p2800
S'-122.215025'
p2801
tp2802
I0
s(S'37.722083'
p2803
S'-122.179455'
p2804
tp2805
I0
s(S'37.756032'
p2806
S'-122.163520'
p2807
tp2808
I0
s(S'37.859005'
p2809
S'-122.277343'
p2810
tp2811
I1
s(S'37.724331'
p2812
S'-122.174902'
p2813
tp2814
I0
s(S'37.833824'
p2815
S'-122.201651'
p2816
tp2817
I2
s(S'37.758056'
p2818
S'-122.184293'
p2819
tp2820
I0
s(S'37.850011'
p2821
S'-122.262546'
p2822
tp2823
I1
s(S'37.843267'
p2824
S'-122.217870'
p2825
tp2826
I2
s(S'37.850461'
p2827
S'-122.264253'
p2828
tp2829
I1
s(S'37.807294'
p2830
S'-122.226407'
p2831
tp2832
I1
s(S'37.858330'
p2833
S'-122.243765'
p2834
tp2835
I1
s(S'37.868672'
p2836
S'-122.240350'
p2837
tp2838
I2
s(S'37.798975'
p2839
S'-122.283318'
p2840
tp2841
I1
s(S'37.792905'
p2842
S'-122.163235'
p2843
tp2844
I1
s(S'37.751086'
p2845
S'-122.173479'
p2846
tp2847
I0
s(S'37.834723'
p2848
S'-122.262830'
p2849
tp2850
I0
s(S'37.835173'
p2851
S'-122.294700'
p2852
tp2853
I1
s(S'37.796277'
p2854
S'-122.228399'
p2855
tp2856
I0
s(S'37.801673'
p2857
S'-122.230675'
p2858
tp2859
I0
s(S'37.796727'
p2860
S'-122.264822'
p2861
tp2862
I0
s(S'37.761203'
p2863
S'-122.164658'
p2864
tp2865
I0
s(S'37.844391'
p2866
S'-122.293278'
p2867
tp2868
I1
s(S'37.849112'
p2869
S'-122.226122'
p2870
tp2871
I2
s(S'37.822357'
p2872
S'-122.212748'
p2873
tp2874
I2
s(S'37.805495'
p2875
S'-122.239212'
p2876
tp2877
I1
s(S'37.737371'
p2878
S'-122.177748'
p2879
tp2880
I0
s(S'37.774019'
p2881
S'-122.158682'
p2882
tp2883
I1
s(S'37.843042'
p2884
S'-122.244049'
p2885
tp2886
I2
s(S'37.863276'
p2887
S'-122.235228'
p2888
tp2889
I2
s(S'37.795602'
p2890
S'-122.264253'
p2891
tp2892
I0
s(S'37.803921'
p2893
S'-122.209903'
p2894
tp2895
I1
s(S'37.841693'
p2896
S'-122.197951'
p2897
tp2898
I2
s(S'37.832025'
p2899
S'-122.208195'
p2900
tp2901
I2
s(S'37.753784'
p2902
S'-122.209334'
p2903
tp2904
I0
s(S'37.864401'
p2905
S'-122.232667'
p2906
tp2907
I2
s(S'37.818086'
p2908
S'-122.200228'
p2909
tp2910
I2
s(S'37.820109'
p2911
S'-122.244334'
p2912
tp2913
I2
s(S'37.786834'
p2914
S'-122.191976'
p2915
tp2916
I1
s(S'37.842592'
p2917
S'-122.271082'
p2918
tp2919
I0
s(S'37.818985'
p2920
S'-122.238643'
p2921
tp2922
I2
s(S'37.776492'
p2923
S'-122.223561'
p2924
tp2925
I0
s(S'37.849337'
p2926
S'-122.281895'
p2927
tp2928
I0
s(S'37.827528'
p2929
S'-122.187423'
p2930
tp2931
I2
s(S'37.817411'
p2932
S'-122.188845'
p2933
tp2934
I2
s(S'37.837421'
p2935
S'-122.260838'
p2936
tp2937
I1
s(S'37.785260'
p2938
S'-122.234659'
p2939
tp2940
I0
s(S'37.758281'
p2941
S'-122.168927'
p2942
tp2943
I0
s(S'37.808418'
p2944
S'-122.239497'
p2945
tp2946
I2
s(S'37.875417'
p2947
S'-122.292139'
p2948
tp2949
I1
s(S'37.860129'
p2950
S'-122.271651'
p2951
tp2952
I0
s(S'37.725680'
p2953
S'-122.183439'
p2954
tp2955
I0
s(S'37.852035'
p2956
S'-122.276489'
p2957
tp2958
I0
s(S'37.798975'
p2959
S'-122.226122'
p2960
tp2961
I0
s(S'37.828877'
p2962
S'-122.252017'
p2963
tp2964
I1
s(S'37.831351'
p2965
S'-122.293562'
p2966
tp2967
I1
s(S'37.749063'
p2968
S'-122.184008'
p2969
tp2970
I0
s(S'37.800324'
p2971
S'-122.215878'
p2972
tp2973
I1
s(S'37.771546'
p2974
S'-122.195959'
p2975
tp2976
I0
s(S'37.795378'
p2977
S'-122.201081'
p2978
tp2979
I1
s(S'37.803022'
p2980
S'-122.276773'
p2981
tp2982
I1
s(S'37.771321'
p2983
S'-122.207342'
p2984
tp2985
I0
s(S'37.748838'
p2986
S'-122.164943'
p2987
tp2988
I0
s(S'37.746365'
p2989
S'-122.174049'
p2990
tp2991
I0
s(S'37.780989'
p2992
S'-122.210756'
p2993
tp2994
I0
s(S'37.774019'
p2995
S'-122.212464'
p2996
tp2997
I0
s(S'37.780989'
p2998
S'-122.221569'
p2999
tp3000
I0
s.