cnumpy.core.multiarray
_reconstruct
p0
(cnumpy
ndarray
p1
(I0
tp2
S'b'
p3
tp4
Rp5
(I1
(I1000
tp6
cnumpy
dtype
p7
(S'S119'
p8
I0
I1
tp9
Rp10
(I3
S'|'
p11
NNNI119
I1
I0
tp12
bI00
S'http://imagenet.stanford.edu/internal/data/geo/gsv/37_-122/7_2/7_9/8_1/im_37.778291_-122.291286_60.000000_0.000000.jpg\x00http://imagenet.stanford.edu/internal/data/geo/gsv/37_-122/8_2/6_8/2_0/im_37.862152_-122.280757_60.000000_0.000000.jpg\x00http://imagenet.stanford.edu/internal/data/geo/gsv/37_-122/7_1/7_7/9_0/im_37.779864_-122.170634_60.000000_0.000000.jpg\x00http://imagenet.stanford.edu/internal/data/geo/gsv/37_-122/8_2/2_6/5_7/im_37.825730_-122.267383_60.000000_0.000000.jpg\x00http://imagenet.stanford.edu/internal/data/geo/gsv/37_-122/8_2/4_5/4_2/im_37.844166_-122.252871_60.000000_0.000000.jpg\x00http://imagenet.stanford.edu/internal/data/geo/gsv/37_-122/7_2/7_0/3_3/im_37.773119_-122.203073_60.000000_0.000000.jpg\x00http://imagenet.stanford.edu/internal/data/geo/gsv/37_-122/8_2/6_2/6_1/im_37.866424_-122.221285_60.000000_0.000000.jpg\x00http://imagenet.stanford.edu/internal/data/geo/gsv/37_-122/8_2/4_3/8_2/im_37.848887_-122.232098_60.000000_0.000000.jpg\x00http://imagenet.stanford.edu/internal/data/geo/gsv/37_-122/7_2/7_2/6_3/im_37.776492_-122.223561_60.000000_0.000000.jpg\x00http://imagenet.stanford.edu/internal/data/geo/gsv/37_-122/7_2/9_0/0_0/im_37.790207_-122.200228_60.000000_0.000000.jpg\x00http://imagenet.stanford.edu/internal/data/geo/gsv/37_-122/8_2/2_0/4_5/im_37.824606_-122.205065_60.000000_0.000000.jpg\x00http://imagenet.stanford.edu/internal/data/geo/gsv/37_-122/7_1/8_9/8_7/im_37.788633_-122.197382_60.000000_0.000000.jpg\x00http://imagenet.stanford.edu/internal/data/geo/gsv/37_-122/8_2/0_2/6_6/im_37.806844_-122.226122_60.000000_0.000000.jpg\x00http://imagenet.stanford.edu/internal/data/geo/gsv/37_-122/8_2/6_5/9_0/im_37.869347_-122.250594_60.000000_0.000000.jpg\x00http://imagenet.stanford.edu/internal/data/geo/gsv/37_-122/8_2/4_2/3_1/im_37.843491_-122.221000_60.000000_0.000000.jpg\x00http://imagenet.stanford.edu/internal/data/geo/gsv/37_-122/8_2/0_7/3_8/im_37.803022_-122.278481_60.000000_0.000000.jpg\x00http://imagenet.stanford.edu/internal/data/geo/gsv/37_-122/7_2/8_3/2_6/im_37.782562_-122.236651_60.000000_0.000000.jpg\x00http://imagenet.stanford.edu/internal/data/geo/gsv/37_-122/7_2/6_0/7_1/im_37.767948_-122.201651_60.000000_0.000000.jpg\x00http://imagenet.stanford.edu/internal/data/geo/gsv/37_-122/8_1/2_8/7_7/im_37.827528_-122.187423_60.000000_0.000000.jpg\x00http://imagenet.stanford.edu/internal/data/geo/gsv/37_-122/7_2/2_0/3_1/im_37.723882_-122.201081_60.000000_0.000000.jpg\x00http://imagenet.stanford.edu/internal/data/geo/gsv/37_-122/7_2/8_0/1_0/im_37.781213_-122.200228_60.000000_0.000000.jpg\x00http://imagenet.stanford.edu/internal/data/geo/gsv/37_-122/8_2/6_8/1_1/im_37.861927_-122.281042_60.000000_0.000000.jpg\x00http://imagenet.stanford.edu/internal/data/geo/gsv/37_-122/8_2/0_1/9_9/im_37.809542_-122.219293_60.000000_0.000000.jpg\x00http://imagenet.stanford.edu/internal/data/geo/gsv/37_-122/7_2/2_2/4_1/im_37.724331_-122.221569_60.000000_0.000000.jpg\x00http://imagenet.stanford.edu/internal/data/geo/gsv/37_-122/7_1/2_7/0_7/im_37.720059_-122.177748_60.000000_0.000000.jpg\x00http://imagenet.stanford.edu/internal/data/geo/gsv/37_-122/8_2/1_0/8_3/im_37.818310_-122.203927_60.000000_0.000000.jpg\x00http://imagenet.stanford.edu/internal/data/geo/gsv/37_-122/8_2/1_3/0_2/im_37.810666_-122.232383_60.000000_0.000000.jpg\x00http://imagenet.stanford.edu/internal/data/geo/gsv/37_-122/8_2/2_6/8_0/im_37.828428_-122.260269_60.000000_0.000000.jpg\x00http://imagenet.stanford.edu/internal/data/geo/gsv/37_-122/7_2/9_2/9_6/im_37.798975_-122.226122_60.000000_0.000000.jpg\x00http://imagenet.stanford.edu/internal/data/geo/gsv/37_-122/8_2/5_9/6_2/im_37.856082_-122.292424_60.000000_0.000000.jpg\x00http://imagenet.stanford.edu/internal/data/geo/gsv/37_-122/8_2/6_6/3_2/im_37.863276_-122.262830_60.000000_0.000000.jpg\x00http://imagenet.stanford.edu/internal/data/geo/gsv/37_-122/7_2/7_0/2_7/im_37.772220_-122.207342_60.000000_0.000000.jpg\x00http://imagenet.stanford.edu/internal/data/geo/gsv/37_-122/7_1/3_8/1_8/im_37.731526_-122.188276_60.000000_0.000000.jpg\x00http://imagenet.stanford.edu/internal/data/geo/gsv/37_-122/7_1/9_9/4_3/im_37.794703_-122.193683_60.000000_0.000000.jpg\x00http://imagenet.stanford.edu/internal/data/geo/gsv/37_-122/8_1/2_8/4_8/im_37.824381_-122.188276_60.000000_0.000000.jpg\x00http://imagenet.stanford.edu/internal/data/geo/gsv/37_-122/8_2/0_0/3_3/im_37.803921_-122.203358_60.000000_0.000000.jpg\x00http://imagenet.stanford.edu/internal/data/geo/gsv/37_-122/8_2/1_5/1_0/im_37.811116_-122.250025_60.000000_0.000000.jpg\x00http://imagenet.stanford.edu/internal/data/geo/gsv/37_-122/7_1/1_7/9_2/im_37.719385_-122.172626_60.000000_0.000000.jpg\x00http://imagenet.stanford.edu/internal/data/geo/gsv/37_-122/7_1/7_9/3_4/im_37.773569_-122.194537_60.000000_0.000000.jpg\x00http://imagenet.stanford.edu/internal/data/geo/gsv/37_-122/8_2/2_4/2_7/im_37.822807_-122.247180_60.000000_0.000000.jpg\x00http://imagenet.stanford.edu/internal/data/geo/gsv/37_-122/8_2/5_6/0_6/im_37.850461_-122.266814_60.000000_0.000000.jpg\x00http://imagenet.stanford.edu/internal/data/geo/gsv/37_-122/8_2/0_1/0_5/im_37.800324_-122.215878_60.000000_0.000000.jpg\x00http://imagenet.stanford.edu/internal/data/geo/gsv/37_-122/7_2/7_1/8_3/im_37.778740_-122.213886_60.000000_0.000000.jpg\x00http://imagenet.stanford.edu/internal/data/geo/gsv/37_-122/7_2/9_6/9_9/im_37.799425_-122.269375_60.000000_0.000000.jpg\x00http://imagenet.stanford.edu/internal/data/geo/gsv/37_-122/7_2/7_8/9_0/im_37.779864_-122.280757_60.000000_0.000000.jpg\x00http://imagenet.stanford.edu/internal/data/geo/gsv/37_-122/8_2/3_5/2_3/im_37.832475_-122.253724_60.000000_0.000000.jpg\x00http://imagenet.stanford.edu/internal/data/geo/gsv/37_-122/8_2/3_5/7_4/im_37.836971_-122.254863_60.000000_0.000000.jpg\x00http://imagenet.stanford.edu/internal/data/geo/gsv/37_-122/7_2/9_1/5_0/im_37.795602_-122.210472_60.000000_0.000000.jpg\x00http://imagenet.stanford.edu/internal/data/geo/gsv/37_-122/7_1/7_8/1_8/im_37.771770_-122.188561_60.000000_0.000000.jpg\x00http://imagenet.stanford.edu/internal/data/geo/gsv/37_-122/7_2/8_8/1_9/im_37.781888_-122.289863_60.000000_0.000000.jpg\x00http://imagenet.stanford.edu/internal/data/geo/gsv/37_-122/7_2/7_8/5_3/im_37.775368_-122.283034_60.000000_0.000000.jpg\x00http://imagenet.stanford.edu/internal/data/geo/gsv/37_-122/7_1/5_8/4_6/im_37.754683_-122.186569_60.000000_0.000000.jpg\x00http://imagenet.stanford.edu/internal/data/geo/gsv/37_-122/8_2/6_8/6_6/im_37.866199_-122.286733_60.000000_0.000000.jpg\x00http://imagenet.stanford.edu/internal/data/geo/gsv/37_-122/8_2/3_7/0_6/im_37.830002_-122.276204_60.000000_0.000000.jpg\x00http://imagenet.stanford.edu/internal/data/geo/gsv/37_-122/7_2/9_0/8_0/im_37.798076_-122.200797_60.000000_0.000000.jpg\x00http://imagenet.stanford.edu/internal/data/geo/gsv/37_-122/8_2/6_5/1_8/im_37.861478_-122.258277_60.000000_0.000000.jpg\x00http://imagenet.stanford.edu/internal/data/geo/gsv/37_-122/8_2/0_1/1_9/im_37.801673_-122.219008_60.000000_0.000000.jpg\x00http://imagenet.stanford.edu/internal/data/geo/gsv/37_-122/8_2/2_8/6_1/im_37.826179_-122.281326_60.000000_0.000000.jpg\x00http://imagenet.stanford.edu/internal/data/geo/gsv/37_-122/7_1/2_7/1_5/im_37.721184_-122.175187_60.000000_0.000000.jpg\x00http://imagenet.stanford.edu/internal/data/geo/gsv/37_-122/8_2/3_5/4_9/im_37.834273_-122.259131_60.000000_0.000000.jpg\x00http://imagenet.stanford.edu/internal/data/geo/gsv/37_-122/8_2/6_7/3_0/im_37.863501_-122.270229_60.000000_0.000000.jpg\x00http://imagenet.stanford.edu/internal/data/geo/gsv/37_-122/8_2/6_5/0_0/im_37.860803_-122.250310_60.000000_0.000000.jpg\x00http://imagenet.stanford.edu/internal/data/geo/gsv/37_-122/8_2/3_8/2_0/im_37.832250_-122.280473_60.000000_0.000000.jpg\x00http://imagenet.stanford.edu/internal/data/geo/gsv/37_-122/8_2/2_6/0_1/im_37.820334_-122.261407_60.000000_0.000000.jpg\x00http://imagenet.stanford.edu/internal/data/geo/gsv/37_-122/7_2/7_0/0_2/im_37.770646_-122.202504_60.000000_0.000000.jpg\x00http://imagenet.stanford.edu/internal/data/geo/gsv/37_-122/8_2/7_6/5_9/im_37.875642_-122.269944_60.000000_0.000000.jpg\x00http://imagenet.stanford.edu/internal/data/geo/gsv/37_-122/7_2/9_6/5_4/im_37.795602_-122.264253_60.000000_0.000000.jpg\x00http://imagenet.stanford.edu/internal/data/geo/gsv/37_-122/8_2/1_0/5_9/im_37.815612_-122.209618_60.000000_0.000000.jpg\x00http://imagenet.stanford.edu/internal/data/geo/gsv/37_-122/7_2/6_0/1_3/im_37.761428_-122.203358_60.000000_0.000000.jpg\x00http://imagenet.stanford.edu/internal/data/geo/gsv/37_-122/7_1/9_9/8_1/im_37.798525_-122.191122_60.000000_0.000000.jpg\x00http://imagenet.stanford.edu/internal/data/geo/gsv/37_-122/8_1/3_9/5_8/im_37.835173_-122.198805_60.000000_0.000000.jpg\x00http://imagenet.stanford.edu/internal/data/geo/gsv/37_-122/8_2/4_8/6_3/im_37.846189_-122.283034_60.000000_0.000000.jpg\x00http://imagenet.stanford.edu/internal/data/geo/gsv/37_-122/7_1/2_9/3_0/im_37.723432_-122.190837_60.000000_0.000000.jpg\x00http://imagenet.stanford.edu/internal/data/geo/gsv/37_-122/8_2/4_3/8_2/im_37.848662_-122.232383_60.000000_0.000000.jpg\x00http://imagenet.stanford.edu/internal/data/geo/gsv/37_-122/8_2/6_6/0_6/im_37.860803_-122.266814_60.000000_0.000000.jpg\x00http://imagenet.stanford.edu/internal/data/geo/gsv/37_-122/8_2/6_8/8_8/im_37.867998_-122.288156_60.000000_0.000000.jpg\x00http://imagenet.stanford.edu/internal/data/geo/gsv/37_-122/7_2/7_0/7_3/im_37.777616_-122.203358_60.000000_0.000000.jpg\x00http://imagenet.stanford.edu/internal/data/geo/gsv/37_-122/8_2/0_0/3_9/im_37.803921_-122.209903_60.000000_0.000000.jpg\x00http://imagenet.stanford.edu/internal/data/geo/gsv/37_-122/7_2/8_7/3_8/im_37.783462_-122.278196_60.000000_0.000000.jpg\x00http://imagenet.stanford.edu/internal/data/geo/gsv/37_-122/8_2/4_9/2_0/im_37.842367_-122.290148_60.000000_0.000000.jpg\x00http://imagenet.stanford.edu/internal/data/geo/gsv/37_-122/8_2/0_1/5_7/im_37.805720_-122.217870_60.000000_0.000000.jpg\x00http://imagenet.stanford.edu/internal/data/geo/gsv/37_-122/8_2/1_4/5_6/im_37.815388_-122.246895_60.000000_0.000000.jpg\x00http://imagenet.stanford.edu/internal/data/geo/gsv/37_-122/8_2/6_8/8_7/im_37.868223_-122.287302_60.000000_0.000000.jpg\x00http://imagenet.stanford.edu/internal/data/geo/gsv/37_-122/8_2/2_8/5_3/im_37.825055_-122.283887_60.000000_0.000000.jpg\x00http://imagenet.stanford.edu/internal/data/geo/gsv/37_-122/7_2/6_0/2_3/im_37.762103_-122.203642_60.000000_0.000000.jpg\x00http://imagenet.stanford.edu/internal/data/geo/gsv/37_-122/8_2/2_6/3_9/im_37.823032_-122.269090_60.000000_0.000000.jpg\x00http://imagenet.stanford.edu/internal/data/geo/gsv/37_-122/8_2/2_0/4_6/im_37.824606_-122.206488_60.000000_0.000000.jpg\x00http://imagenet.stanford.edu/internal/data/geo/gsv/37_-122/7_2/9_8/9_3/im_37.798975_-122.283318_60.000000_0.000000.jpg\x00http://imagenet.stanford.edu/internal/data/geo/gsv/37_-122/8_2/2_5/5_9/im_37.825505_-122.259415_60.000000_0.000000.jpg\x00http://imagenet.stanford.edu/internal/data/geo/gsv/37_-122/8_2/4_2/8_5/im_37.848662_-122.225553_60.000000_0.000000.jpg\x00http://imagenet.stanford.edu/internal/data/geo/gsv/37_-122/7_1/9_6/4_2/im_37.794703_-122.162382_60.000000_0.000000.jpg\x00http://imagenet.stanford.edu/internal/data/geo/gsv/37_-122/8_2/3_0/0_8/im_37.830451_-122.208195_60.000000_0.000000.jpg\x00http://imagenet.stanford.edu/internal/data/geo/gsv/37_-122/7_1/9_8/4_2/im_37.794254_-122.182585_60.000000_0.000000.jpg\x00http://imagenet.stanford.edu/internal/data/geo/gsv/37_-122/8_2/4_8/9_5/im_37.849787_-122.285595_60.000000_0.000000.jpg\x00http://imagenet.stanford.edu/internal/data/geo/gsv/37_-122/8_2/5_3/4_3/im_37.854058_-122.233236_60.000000_0.000000.jpg\x00http://imagenet.stanford.edu/internal/data/geo/gsv/37_-122/8_2/3_7/2_1/im_37.832025_-122.271651_60.000000_0.000000.jpg\x00http://imagenet.stanford.edu/internal/data/geo/gsv/37_-122/8_2/5_6/0_7/im_37.850236_-122.267383_60.000000_0.000000.jpg\x00http://imagenet.stanford.edu/internal/data/geo/gsv/37_-122/8_2/4_6/4_4/im_37.844616_-122.264537_60.000000_0.000000.jpg\x00http://imagenet.stanford.edu/internal/data/geo/gsv/37_-122/8_2/4_7/6_7/im_37.846414_-122.277343_60.000000_0.000000.jpg\x00http://imagenet.stanford.edu/internal/data/geo/gsv/37_-122/7_1/2_8/4_2/im_37.724781_-122.182585_60.000000_0.000000.jpg\x00http://imagenet.stanford.edu/internal/data/geo/gsv/37_-122/8_2/3_5/8_8/im_37.838770_-122.258562_60.000000_0.000000.jpg\x00http://imagenet.stanford.edu/internal/data/geo/gsv/37_-122/8_2/3_8/8_7/im_37.838770_-122.287871_60.000000_0.000000.jpg\x00http://imagenet.stanford.edu/internal/data/geo/gsv/37_-122/7_1/5_7/2_6/im_37.752210_-122.176325_60.000000_0.000000.jpg\x00http://imagenet.stanford.edu/internal/data/geo/gsv/37_-122/8_2/4_1/3_7/im_37.843267_-122.217870_60.000000_0.000000.jpg\x00http://imagenet.stanford.edu/internal/data/geo/gsv/37_-122/8_2/5_6/9_0/im_37.859454_-122.260554_60.000000_0.000000.jpg\x00http://imagenet.stanford.edu/internal/data/geo/gsv/37_-122/7_2/8_9/1_1/im_37.781888_-122.291286_60.000000_0.000000.jpg\x00http://imagenet.stanford.edu/internal/data/geo/gsv/37_-122/7_2/4_0/2_2/im_37.742543_-122.202220_60.000000_0.000000.jpg\x00http://imagenet.stanford.edu/internal/data/geo/gsv/37_-122/8_2/5_6/8_9/im_37.858555_-122.269375_60.000000_0.000000.jpg\x00http://imagenet.stanford.edu/internal/data/geo/gsv/37_-122/8_2/4_4/6_6/im_37.846414_-122.246041_60.000000_0.000000.jpg\x00http://imagenet.stanford.edu/internal/data/geo/gsv/37_-122/8_2/6_1/8_9/im_37.867998_-122.219578_60.000000_0.000000.jpg\x00http://imagenet.stanford.edu/internal/data/geo/gsv/37_-122/7_1/6_8/7_0/im_37.767274_-122.180593_60.000000_0.000000.jpg\x00http://imagenet.stanford.edu/internal/data/geo/gsv/37_-122/7_1/6_6/4_0/im_37.764126_-122.160674_60.000000_0.000000.jpg\x00http://imagenet.stanford.edu/internal/data/geo/gsv/37_-122/8_1/0_7/1_5/im_37.801448_-122.175187_60.000000_0.000000.jpg\x00http://imagenet.stanford.edu/internal/data/geo/gsv/37_-122/7_1/7_8/2_4/im_37.772445_-122.184008_60.000000_0.000000.jpg\x00http://imagenet.stanford.edu/internal/data/geo/gsv/37_-122/8_2/1_6/2_4/im_37.812914_-122.263968_60.000000_0.000000.jpg\x00http://imagenet.stanford.edu/internal/data/geo/gsv/37_-122/7_2/9_1/7_3/im_37.796951_-122.213602_60.000000_0.000000.jpg\x00http://imagenet.stanford.edu/internal/data/geo/gsv/37_-122/8_1/0_9/0_0/im_37.800324_-122.190268_60.000000_0.000000.jpg\x00http://imagenet.stanford.edu/internal/data/geo/gsv/37_-122/7_1/7_9/9_0/im_37.779640_-122.190837_60.000000_0.000000.jpg\x00http://imagenet.stanford.edu/internal/data/geo/gsv/37_-122/8_2/0_1/6_3/im_37.806844_-122.213317_60.000000_0.000000.jpg\x00http://imagenet.stanford.edu/internal/data/geo/gsv/37_-122/7_1/7_5/4_8/im_37.774019_-122.158682_60.000000_0.000000.jpg\x00http://imagenet.stanford.edu/internal/data/geo/gsv/37_-122/7_2/8_0/5_7/im_37.785485_-122.207057_60.000000_0.000000.jpg\x00http://imagenet.stanford.edu/internal/data/geo/gsv/37_-122/8_2/1_3/9_8/im_37.818985_-122.238643_60.000000_0.000000.jpg\x00http://imagenet.stanford.edu/internal/data/geo/gsv/37_-122/8_2/3_0/1_7/im_37.831351_-122.207057_60.000000_0.000000.jpg\x00http://imagenet.stanford.edu/internal/data/geo/gsv/37_-122/8_2/0_3/9_9/im_37.809542_-122.239497_60.000000_0.000000.jpg\x00http://imagenet.stanford.edu/internal/data/geo/gsv/37_-122/8_2/4_8/6_4/im_37.846189_-122.284741_60.000000_0.000000.jpg\x00http://imagenet.stanford.edu/internal/data/geo/gsv/37_-122/7_1/2_9/0_2/im_37.720734_-122.192545_60.000000_0.000000.jpg\x00http://imagenet.stanford.edu/internal/data/geo/gsv/37_-122/8_2/4_4/8_2/im_37.848887_-122.242911_60.000000_0.000000.jpg\x00http://imagenet.stanford.edu/internal/data/geo/gsv/37_-122/8_2/5_5/8_4/im_37.858330_-122.254293_60.000000_0.000000.jpg\x00http://imagenet.stanford.edu/internal/data/geo/gsv/37_-122/8_2/5_3/1_2/im_37.851136_-122.232667_60.000000_0.000000.jpg\x00http://imagenet.stanford.edu/internal/data/geo/gsv/37_-122/8_2/6_7/4_1/im_37.864401_-122.271651_60.000000_0.000000.jpg\x00http://imagenet.stanford.edu/internal/data/geo/gsv/37_-122/8_2/0_2/1_5/im_37.800998_-122.225838_60.000000_0.000000.jpg\x00http://imagenet.stanford.edu/internal/data/geo/gsv/37_-122/8_2/1_7/3_4/im_37.813139_-122.274782_60.000000_0.000000.jpg\x00http://imagenet.stanford.edu/internal/data/geo/gsv/37_-122/8_2/0_7/9_4/im_37.809767_-122.274497_60.000000_0.000000.jpg\x00http://imagenet.stanford.edu/internal/data/geo/gsv/37_-122/8_2/4_4/8_9/im_37.848213_-122.249456_60.000000_0.000000.jpg\x00http://imagenet.stanford.edu/internal/data/geo/gsv/37_-122/8_2/4_7/6_9/im_37.846639_-122.279904_60.000000_0.000000.jpg\x00http://imagenet.stanford.edu/internal/data/geo/gsv/37_-122/8_2/6_8/0_0/im_37.860129_-122.280473_60.000000_0.000000.jpg\x00http://imagenet.stanford.edu/internal/data/geo/gsv/37_-122/7_2/9_6/8_7/im_37.798300_-122.267668_60.000000_0.000000.jpg\x00http://imagenet.stanford.edu/internal/data/geo/gsv/37_-122/7_1/6_9/2_8/im_37.762103_-122.198520_60.000000_0.000000.jpg\x00http://imagenet.stanford.edu/internal/data/geo/gsv/37_-122/8_2/4_9/4_2/im_37.844391_-122.292709_60.000000_0.000000.jpg\x00http://imagenet.stanford.edu/internal/data/geo/gsv/37_-122/8_1/3_9/8_5/im_37.838320_-122.195390_60.000000_0.000000.jpg\x00http://imagenet.stanford.edu/internal/data/geo/gsv/37_-122/8_2/5_7/2_1/im_37.852035_-122.271936_60.000000_0.000000.jpg\x00http://imagenet.stanford.edu/internal/data/geo/gsv/37_-122/7_1/2_8/8_6/im_37.728603_-122.186854_60.000000_0.000000.jpg\x00http://imagenet.stanford.edu/internal/data/geo/gsv/37_-122/7_2/8_2/3_4/im_37.783237_-122.224415_60.000000_0.000000.jpg\x00http://imagenet.stanford.edu/internal/data/geo/gsv/37_-122/8_2/2_7/6_7/im_37.826854_-122.277627_60.000000_0.000000.jpg\x00http://imagenet.stanford.edu/internal/data/geo/gsv/37_-122/8_2/3_0/2_8/im_37.832025_-122.208195_60.000000_0.000000.jpg\x00http://imagenet.stanford.edu/internal/data/geo/gsv/37_-122/8_2/4_0/6_8/im_37.846414_-122.208480_60.000000_0.000000.jpg\x00http://imagenet.stanford.edu/internal/data/geo/gsv/37_-122/8_1/1_8/8_1/im_37.818086_-122.181732_60.000000_0.000000.jpg\x00http://imagenet.stanford.edu/internal/data/geo/gsv/37_-122/7_1/7_9/1_6/im_37.771546_-122.195959_60.000000_0.000000.jpg\x00http://imagenet.stanford.edu/internal/data/geo/gsv/37_-122/8_2/3_1/4_3/im_37.834723_-122.213033_60.000000_0.000000.jpg\x00http://imagenet.stanford.edu/internal/data/geo/gsv/37_-122/7_1/9_8/6_0/im_37.796052_-122.180593_60.000000_0.000000.jpg\x00http://imagenet.stanford.edu/internal/data/geo/gsv/37_-122/7_1/3_8/2_4/im_37.731975_-122.184293_60.000000_0.000000.jpg\x00http://imagenet.stanford.edu/internal/data/geo/gsv/37_-122/7_2/9_2/2_3/im_37.792230_-122.223846_60.000000_0.000000.jpg\x00http://imagenet.stanford.edu/internal/data/geo/gsv/37_-122/8_2/3_6/4_2/im_37.834723_-122.262830_60.000000_0.000000.jpg\x00http://imagenet.stanford.edu/internal/data/geo/gsv/37_-122/8_2/0_6/8_8/im_37.808418_-122.268521_60.000000_0.000000.jpg\x00http://imagenet.stanford.edu/internal/data/geo/gsv/37_-122/8_2/0_1/1_9/im_37.801223_-122.219008_60.000000_0.000000.jpg\x00http://imagenet.stanford.edu/internal/data/geo/gsv/37_-122/8_2/1_7/9_9/im_37.819659_-122.279904_60.000000_0.000000.jpg\x00http://imagenet.stanford.edu/internal/data/geo/gsv/37_-122/7_2/7_3/7_4/im_37.777616_-122.234944_60.000000_0.000000.jpg\x00http://imagenet.stanford.edu/internal/data/geo/gsv/37_-122/8_2/6_4/8_0/im_37.868672_-122.240350_60.000000_0.000000.jpg\x00http://imagenet.stanford.edu/internal/data/geo/gsv/37_-122/8_2/4_3/5_3/im_37.845290_-122.233805_60.000000_0.000000.jpg\x00http://imagenet.stanford.edu/internal/data/geo/gsv/37_-122/8_2/1_2/2_7/im_37.812690_-122.227830_60.000000_0.000000.jpg\x00http://imagenet.stanford.edu/internal/data/geo/gsv/37_-122/8_1/3_9/6_4/im_37.836297_-122.194821_60.000000_0.000000.jpg\x00http://imagenet.stanford.edu/internal/data/geo/gsv/37_-122/8_2/2_7/9_9/im_37.829327_-122.279619_60.000000_0.000000.jpg\x00http://imagenet.stanford.edu/internal/data/geo/gsv/37_-122/8_2/1_5/4_8/im_37.814263_-122.257993_60.000000_0.000000.jpg\x00http://imagenet.stanford.edu/internal/data/geo/gsv/37_-122/8_2/3_1/5_9/im_37.835173_-122.219008_60.000000_0.000000.jpg\x00http://imagenet.stanford.edu/internal/data/geo/gsv/37_-122/7_2/8_8/0_9/im_37.780764_-122.289009_60.000000_0.000000.jpg\x00http://imagenet.stanford.edu/internal/data/geo/gsv/37_-122/8_2/0_7/6_1/im_37.806394_-122.271936_60.000000_0.000000.jpg\x00http://imagenet.stanford.edu/internal/data/geo/gsv/37_-122/8_2/1_7/8_0/im_37.818310_-122.270229_60.000000_0.000000.jpg\x00http://imagenet.stanford.edu/internal/data/geo/gsv/37_-122/8_2/5_2/4_5/im_37.854058_-122.225553_60.000000_0.000000.jpg\x00http://imagenet.stanford.edu/internal/data/geo/gsv/37_-122/8_2/3_1/4_8/im_37.834048_-122.218155_60.000000_0.000000.jpg\x00http://imagenet.stanford.edu/internal/data/geo/gsv/37_-122/7_2/8_1/8_2/im_37.788858_-122.212464_60.000000_0.000000.jpg\x00http://imagenet.stanford.edu/internal/data/geo/gsv/37_-122/7_2/1_1/5_5/im_37.715563_-122.215025_60.000000_0.000000.jpg\x00http://imagenet.stanford.edu/internal/data/geo/gsv/37_-122/7_2/8_0/3_2/im_37.783237_-122.202789_60.000000_0.000000.jpg\x00http://imagenet.stanford.edu/internal/data/geo/gsv/37_-122/7_1/8_8/0_8/im_37.780314_-122.187992_60.000000_0.000000.jpg\x00http://imagenet.stanford.edu/internal/data/geo/gsv/37_-122/7_2/9_1/1_5/im_37.791106_-122.215878_60.000000_0.000000.jpg\x00http://imagenet.stanford.edu/internal/data/geo/gsv/37_-122/8_2/6_8/2_1/im_37.862152_-122.281042_60.000000_0.000000.jpg\x00http://imagenet.stanford.edu/internal/data/geo/gsv/37_-122/8_2/5_2/5_0/im_37.855183_-122.220431_60.000000_0.000000.jpg\x00http://imagenet.stanford.edu/internal/data/geo/gsv/37_-122/7_1/7_9/6_0/im_37.776042_-122.190837_60.000000_0.000000.jpg\x00http://imagenet.stanford.edu/internal/data/geo/gsv/37_-122/8_2/5_3/8_2/im_37.858555_-122.232383_60.000000_0.000000.jpg\x00http://imagenet.stanford.edu/internal/data/geo/gsv/37_-122/8_2/4_1/5_3/im_37.845065_-122.213886_60.000000_0.000000.jpg\x00http://imagenet.stanford.edu/internal/data/geo/gsv/37_-122/8_2/1_2/2_7/im_37.812914_-122.226976_60.000000_0.000000.jpg\x00http://imagenet.stanford.edu/internal/data/geo/gsv/37_-122/7_1/2_7/2_6/im_37.722308_-122.176894_60.000000_0.000000.jpg\x00http://imagenet.stanford.edu/internal/data/geo/gsv/37_-122/7_1/5_7/5_5/im_37.755583_-122.175187_60.000000_0.000000.jpg\x00http://imagenet.stanford.edu/internal/data/geo/gsv/37_-122/8_2/1_7/2_8/im_37.812914_-122.278765_60.000000_0.000000.jpg\x00http://imagenet.stanford.edu/internal/data/geo/gsv/37_-122/7_1/4_8/7_8/im_37.747714_-122.187992_60.000000_0.000000.jpg\x00http://imagenet.stanford.edu/internal/data/geo/gsv/37_-122/8_2/0_4/3_3/im_37.803022_-122.243480_60.000000_0.000000.jpg\x00http://imagenet.stanford.edu/internal/data/geo/gsv/37_-122/8_2/0_3/8_9/im_37.808193_-122.239212_60.000000_0.000000.jpg\x00http://imagenet.stanford.edu/internal/data/geo/gsv/37_-122/8_2/1_1/1_5/im_37.811565_-122.215878_60.000000_0.000000.jpg\x00http://imagenet.stanford.edu/internal/data/geo/gsv/37_-122/7_1/9_8/4_0/im_37.794928_-122.180878_60.000000_0.000000.jpg\x00http://imagenet.stanford.edu/internal/data/geo/gsv/37_-122/8_2/2_6/7_7/im_37.827753_-122.267098_60.000000_0.000000.jpg\x00http://imagenet.stanford.edu/internal/data/geo/gsv/37_-122/7_1/1_9/5_0/im_37.715338_-122.190268_60.000000_0.000000.jpg\x00http://imagenet.stanford.edu/internal/data/geo/gsv/37_-122/8_2/3_9/6_3/im_37.836746_-122.293562_60.000000_0.000000.jpg\x00http://imagenet.stanford.edu/internal/data/geo/gsv/37_-122/8_2/0_8/1_1/im_37.801673_-122.281895_60.000000_0.000000.jpg\x00http://imagenet.stanford.edu/internal/data/geo/gsv/37_-122/8_2/4_6/6_6/im_37.846414_-122.266814_60.000000_0.000000.jpg\x00http://imagenet.stanford.edu/internal/data/geo/gsv/37_-122/8_1/0_6/4_7/im_37.804146_-122.167788_60.000000_0.000000.jpg\x00http://imagenet.stanford.edu/internal/data/geo/gsv/37_-122/7_2/5_0/3_9/im_37.753784_-122.209334_60.000000_0.000000.jpg\x00http://imagenet.stanford.edu/internal/data/geo/gsv/37_-122/7_2/7_7/1_9/im_37.771546_-122.279619_60.000000_0.000000.jpg\x00http://imagenet.stanford.edu/internal/data/geo/gsv/37_-122/8_2/1_6/0_4/im_37.810441_-122.264253_60.000000_0.000000.jpg\x00http://imagenet.stanford.edu/internal/data/geo/gsv/37_-122/8_2/5_4/8_3/im_37.858330_-122.243765_60.000000_0.000000.jpg\x00http://imagenet.stanford.edu/internal/data/geo/gsv/37_-122/8_2/3_1/7_9/im_37.837871_-122.219008_60.000000_0.000000.jpg\x00http://imagenet.stanford.edu/internal/data/geo/gsv/37_-122/8_2/7_6/5_8/im_37.875642_-122.268806_60.000000_0.000000.jpg\x00http://imagenet.stanford.edu/internal/data/geo/gsv/37_-122/8_2/3_0/9_1/im_37.839894_-122.201651_60.000000_0.000000.jpg\x00http://imagenet.stanford.edu/internal/data/geo/gsv/37_-122/8_2/4_5/3_4/im_37.843267_-122.254578_60.000000_0.000000.jpg\x00http://imagenet.stanford.edu/internal/data/geo/gsv/37_-122/8_2/6_5/6_3/im_37.866649_-122.253155_60.000000_0.000000.jpg\x00http://imagenet.stanford.edu/internal/data/geo/gsv/37_-122/7_2/8_0/9_6/im_37.789757_-122.206488_60.000000_0.000000.jpg\x00http://imagenet.stanford.edu/internal/data/geo/gsv/37_-122/8_2/5_6/1_6/im_37.851136_-122.266814_60.000000_0.000000.jpg\x00http://imagenet.stanford.edu/internal/data/geo/gsv/37_-122/8_2/2_0/4_4/im_37.824606_-122.204781_60.000000_0.000000.jpg\x00http://imagenet.stanford.edu/internal/data/geo/gsv/37_-122/8_1/0_7/3_6/im_37.803022_-122.176894_60.000000_0.000000.jpg\x00http://imagenet.stanford.edu/internal/data/geo/gsv/37_-122/8_1/1_9/0_0/im_37.809992_-122.190268_60.000000_0.000000.jpg\x00http://imagenet.stanford.edu/internal/data/geo/gsv/37_-122/8_2/5_4/2_6/im_37.852709_-122.246041_60.000000_0.000000.jpg\x00http://imagenet.stanford.edu/internal/data/geo/gsv/37_-122/7_2/7_1/7_0/im_37.777616_-122.210187_60.000000_0.000000.jpg\x00http://imagenet.stanford.edu/internal/data/geo/gsv/37_-122/8_2/5_5/8_3/im_37.858330_-122.253155_60.000000_0.000000.jpg\x00http://imagenet.stanford.edu/internal/data/geo/gsv/37_-122/7_1/5_9/4_6/im_37.754908_-122.196528_60.000000_0.000000.jpg\x00http://imagenet.stanford.edu/internal/data/geo/gsv/37_-122/7_1/5_8/7_8/im_37.757156_-122.188276_60.000000_0.000000.jpg\x00http://imagenet.stanford.edu/internal/data/geo/gsv/37_-122/8_1/3_8/7_8/im_37.837871_-122.187992_60.000000_0.000000.jpg\x00http://imagenet.stanford.edu/internal/data/geo/gsv/37_-122/7_1/6_7/1_1/im_37.761203_-122.171488_60.000000_0.000000.jpg\x00http://imagenet.stanford.edu/internal/data/geo/gsv/37_-122/8_2/2_7/0_0/im_37.820783_-122.270798_60.000000_0.000000.jpg\x00http://imagenet.stanford.edu/internal/data/geo/gsv/37_-122/7_2/9_3/0_0/im_37.789982_-122.230391_60.000000_0.000000.jpg\x00http://imagenet.stanford.edu/internal/data/geo/gsv/37_-122/8_2/2_9/7_8/im_37.827079_-122.298115_60.000000_0.000000.jpg\x00http://imagenet.stanford.edu/internal/data/geo/gsv/37_-122/8_2/4_8/5_9/im_37.845065_-122.289009_60.000000_0.000000.jpg\x00http://imagenet.stanford.edu/internal/data/geo/gsv/37_-122/8_2/0_6/3_4/im_37.803921_-122.263968_60.000000_0.000000.jpg\x00http://imagenet.stanford.edu/internal/data/geo/gsv/37_-122/8_2/0_5/7_5/im_37.807519_-122.255716_60.000000_0.000000.jpg\x00http://imagenet.stanford.edu/internal/data/geo/gsv/37_-122/8_2/4_9/4_3/im_37.844391_-122.293278_60.000000_0.000000.jpg\x00http://imagenet.stanford.edu/internal/data/geo/gsv/37_-122/7_1/7_6/7_4/im_37.777166_-122.164658_60.000000_0.000000.jpg\x00http://imagenet.stanford.edu/internal/data/geo/gsv/37_-122/7_1/4_9/5_1/im_37.745016_-122.191122_60.000000_0.000000.jpg\x00http://imagenet.stanford.edu/internal/data/geo/gsv/37_-122/7_2/8_3/4_2/im_37.784586_-122.232383_60.000000_0.000000.jpg\x00http://imagenet.stanford.edu/internal/data/geo/gsv/37_-122/7_2/9_7/9_5/im_37.798975_-122.275351_60.000000_0.000000.jpg\x00http://imagenet.stanford.edu/internal/data/geo/gsv/37_-122/8_2/4_3/9_9/im_37.849787_-122.239497_60.000000_0.000000.jpg\x00http://imagenet.stanford.edu/internal/data/geo/gsv/37_-122/8_2/2_8/0_1/im_37.820109_-122.281895_60.000000_0.000000.jpg\x00http://imagenet.stanford.edu/internal/data/geo/gsv/37_-122/8_2/4_8/9_1/im_37.849337_-122.281895_60.000000_0.000000.jpg\x00http://imagenet.stanford.edu/internal/data/geo/gsv/37_-122/8_2/6_3/4_2/im_37.864401_-122.232667_60.000000_0.000000.jpg\x00http://imagenet.stanford.edu/internal/data/geo/gsv/37_-122/8_2/0_6/6_8/im_37.806844_-122.268237_60.000000_0.000000.jpg\x00http://imagenet.stanford.edu/internal/data/geo/gsv/37_-122/8_2/1_3/4_7/im_37.814938_-122.237789_60.000000_0.000000.jpg\x00http://imagenet.stanford.edu/internal/data/geo/gsv/37_-122/7_1/8_7/1_3/im_37.781888_-122.173195_60.000000_0.000000.jpg\x00http://imagenet.stanford.edu/internal/data/geo/gsv/37_-122/8_2/2_6/6_5/im_37.826629_-122.265107_60.000000_0.000000.jpg\x00http://imagenet.stanford.edu/internal/data/geo/gsv/37_-122/7_1/6_5/1_9/im_37.760979_-122.159821_60.000000_0.000000.jpg\x00http://imagenet.stanford.edu/internal/data/geo/gsv/37_-122/8_2/2_1/2_2/im_37.822357_-122.212748_60.000000_0.000000.jpg\x00http://imagenet.stanford.edu/internal/data/geo/gsv/37_-122/8_2/0_3/9_0/im_37.809767_-122.230391_60.000000_0.000000.jpg\x00http://imagenet.stanford.edu/internal/data/geo/gsv/37_-122/8_2/6_7/0_1/im_37.860129_-122.271651_60.000000_0.000000.jpg\x00http://imagenet.stanford.edu/internal/data/geo/gsv/37_-122/7_2/7_0/8_1/im_37.778291_-122.201081_60.000000_0.000000.jpg\x00http://imagenet.stanford.edu/internal/data/geo/gsv/37_-122/8_2/6_5/9_5/im_37.869122_-122.255147_60.000000_0.000000.jpg\x00http://imagenet.stanford.edu/internal/data/geo/gsv/37_-122/8_2/5_7/1_2/im_37.851360_-122.272221_60.000000_0.000000.jpg\x00http://imagenet.stanford.edu/internal/data/geo/gsv/37_-122/7_1/8_9/7_3/im_37.787284_-122.193114_60.000000_0.000000.jpg\x00http://imagenet.stanford.edu/internal/data/geo/gsv/37_-122/7_2/7_2/5_4/im_37.775817_-122.224130_60.000000_0.000000.jpg\x00http://imagenet.stanford.edu/internal/data/geo/gsv/37_-122/7_1/5_8/0_6/im_37.750187_-122.186284_60.000000_0.000000.jpg\x00http://imagenet.stanford.edu/internal/data/geo/gsv/37_-122/8_2/2_5/1_4/im_37.821908_-122.254293_60.000000_0.000000.jpg\x00http://imagenet.stanford.edu/internal/data/geo/gsv/37_-122/8_2/6_8/6_5/im_37.866874_-122.285879_60.000000_0.000000.jpg\x00http://imagenet.stanford.edu/internal/data/geo/gsv/37_-122/8_2/1_7/3_3/im_37.813814_-122.273928_60.000000_0.000000.jpg\x00http://imagenet.stanford.edu/internal/data/geo/gsv/37_-122/7_1/7_8/4_8/im_37.774468_-122.187992_60.000000_0.000000.jpg\x00http://imagenet.stanford.edu/internal/data/geo/gsv/37_-122/8_2/0_1/3_4/im_37.803696_-122.214456_60.000000_0.000000.jpg\x00http://imagenet.stanford.edu/internal/data/geo/gsv/37_-122/8_2/1_5/7_4/im_37.817411_-122.254009_60.000000_0.000000.jpg\x00http://imagenet.stanford.edu/internal/data/geo/gsv/37_-122/7_2/7_8/7_6/im_37.777166_-122.286448_60.000000_0.000000.jpg\x00http://imagenet.stanford.edu/internal/data/geo/gsv/37_-122/8_2/7_7/6_7/im_37.876766_-122.277058_60.000000_0.000000.jpg\x00http://imagenet.stanford.edu/internal/data/geo/gsv/37_-122/7_2/8_0/6_1/im_37.786834_-122.201935_60.000000_0.000000.jpg\x00http://imagenet.stanford.edu/internal/data/geo/gsv/37_-122/8_1/0_7/1_8/im_37.801673_-122.178601_60.000000_0.000000.jpg\x00http://imagenet.stanford.edu/internal/data/geo/gsv/37_-122/8_2/5_8/1_3/im_37.851136_-122.283318_60.000000_0.000000.jpg\x00http://imagenet.stanford.edu/internal/data/geo/gsv/37_-122/8_2/0_3/5_9/im_37.805495_-122.239212_60.000000_0.000000.jpg\x00http://imagenet.stanford.edu/internal/data/geo/gsv/37_-122/8_1/3_9/9_3/im_37.839220_-122.193683_60.000000_0.000000.jpg\x00http://imagenet.stanford.edu/internal/data/geo/gsv/37_-122/8_2/4_2/3_6/im_37.843267_-122.226122_60.000000_0.000000.jpg\x00http://imagenet.stanford.edu/internal/data/geo/gsv/37_-122/8_2/3_9/3_5/im_37.833599_-122.294985_60.000000_0.000000.jpg\x00http://imagenet.stanford.edu/internal/data/geo/gsv/37_-122/8_2/4_4/5_3/im_37.845290_-122.243480_60.000000_0.000000.jpg\x00http://imagenet.stanford.edu/internal/data/geo/gsv/37_-122/8_2/2_9/7_2/im_37.827304_-122.292709_60.000000_0.000000.jpg\x00http://imagenet.stanford.edu/internal/data/geo/gsv/37_-122/8_2/3_1/0_5/im_37.830676_-122.215309_60.000000_0.000000.jpg\x00http://imagenet.stanford.edu/internal/data/geo/gsv/37_-122/8_2/4_1/1_3/im_37.841918_-122.213602_60.000000_0.000000.jpg\x00http://imagenet.stanford.edu/internal/data/geo/gsv/37_-122/7_1/2_7/2_9/im_37.722083_-122.179455_60.000000_0.000000.jpg\x00http://imagenet.stanford.edu/internal/data/geo/gsv/37_-122/8_1/1_9/6_6/im_37.816512_-122.196813_60.000000_0.000000.jpg\x00http://imagenet.stanford.edu/internal/data/geo/gsv/37_-122/8_2/6_7/0_7/im_37.860803_-122.277343_60.000000_0.000000.jpg\x00http://imagenet.stanford.edu/internal/data/geo/gsv/37_-122/8_2/5_7/9_7/im_37.859005_-122.277343_60.000000_0.000000.jpg\x00http://imagenet.stanford.edu/internal/data/geo/gsv/37_-122/8_2/2_0/1_7/im_37.821458_-122.207342_60.000000_0.000000.jpg\x00http://imagenet.stanford.edu/internal/data/geo/gsv/37_-122/7_2/7_0/2_7/im_37.772670_-122.207626_60.000000_0.000000.jpg\x00http://imagenet.stanford.edu/internal/data/geo/gsv/37_-122/8_2/0_1/6_0/im_37.806394_-122.210187_60.000000_0.000000.jpg\x00http://imagenet.stanford.edu/internal/data/geo/gsv/37_-122/8_2/0_2/8_0/im_37.808193_-122.220716_60.000000_0.000000.jpg\x00http://imagenet.stanford.edu/internal/data/geo/gsv/37_-122/8_2/2_1/7_1/im_37.827079_-122.211325_60.000000_0.000000.jpg\x00http://imagenet.stanford.edu/internal/data/geo/gsv/37_-122/8_2/3_1/0_9/im_37.830901_-122.219578_60.000000_0.000000.jpg\x00http://imagenet.stanford.edu/internal/data/geo/gsv/37_-122/8_2/5_7/8_3/im_37.858780_-122.273074_60.000000_0.000000.jpg\x00http://imagenet.stanford.edu/internal/data/geo/gsv/37_-122/8_2/1_3/5_8/im_37.815612_-122.238074_60.000000_0.000000.jpg\x00http://imagenet.stanford.edu/internal/data/geo/gsv/37_-122/8_1/0_7/0_7/im_37.800099_-122.177748_60.000000_0.000000.jpg\x00http://imagenet.stanford.edu/internal/data/geo/gsv/37_-122/8_2/6_9/6_2/im_37.866424_-122.292424_60.000000_0.000000.jpg\x00http://imagenet.stanford.edu/internal/data/geo/gsv/37_-122/7_2/8_1/0_0/im_37.780314_-122.210187_60.000000_0.000000.jpg\x00http://imagenet.stanford.edu/internal/data/geo/gsv/37_-122/8_1/0_9/3_4/im_37.803472_-122.194252_60.000000_0.000000.jpg\x00http://imagenet.stanford.edu/internal/data/geo/gsv/37_-122/7_1/9_8/2_7/im_37.792005_-122.187423_60.000000_0.000000.jpg\x00http://imagenet.stanford.edu/internal/data/geo/gsv/37_-122/8_2/1_4/0_8/im_37.809992_-122.248033_60.000000_0.000000.jpg\x00http://imagenet.stanford.edu/internal/data/geo/gsv/37_-122/7_1/9_8/0_4/im_37.790881_-122.184008_60.000000_0.000000.jpg\x00http://imagenet.stanford.edu/internal/data/geo/gsv/37_-122/8_2/1_1/0_6/im_37.810216_-122.216447_60.000000_0.000000.jpg\x00http://imagenet.stanford.edu/internal/data/geo/gsv/37_-122/8_2/1_4/7_8/im_37.817636_-122.248033_60.000000_0.000000.jpg\x00http://imagenet.stanford.edu/internal/data/geo/gsv/37_-122/7_1/4_6/8_4/im_37.748838_-122.164943_60.000000_0.000000.jpg\x00http://imagenet.stanford.edu/internal/data/geo/gsv/37_-122/8_2/2_6/9_4/im_37.829552_-122.264253_60.000000_0.000000.jpg\x00http://imagenet.stanford.edu/internal/data/geo/gsv/37_-122/8_2/3_1/7_7/im_37.837871_-122.217017_60.000000_0.000000.jpg\x00http://imagenet.stanford.edu/internal/data/geo/gsv/37_-122/7_2/1_1/4_3/im_37.714664_-122.213602_60.000000_0.000000.jpg\x00http://imagenet.stanford.edu/internal/data/geo/gsv/37_-122/8_2/2_6/4_7/im_37.824156_-122.267668_60.000000_0.000000.jpg\x00http://imagenet.stanford.edu/internal/data/geo/gsv/37_-122/8_1/3_8/7_7/im_37.836971_-122.187707_60.000000_0.000000.jpg\x00http://imagenet.stanford.edu/internal/data/geo/gsv/37_-122/8_2/5_5/7_9/im_37.857206_-122.259700_60.000000_0.000000.jpg\x00http://imagenet.stanford.edu/internal/data/geo/gsv/37_-122/8_2/1_4/7_0/im_37.816961_-122.240635_60.000000_0.000000.jpg\x00http://imagenet.stanford.edu/internal/data/geo/gsv/37_-122/7_2/9_0/4_7/im_37.794928_-122.207342_60.000000_0.000000.jpg\x00http://imagenet.stanford.edu/internal/data/geo/gsv/37_-122/7_1/9_7/5_6/im_37.795827_-122.176325_60.000000_0.000000.jpg\x00http://imagenet.stanford.edu/internal/data/geo/gsv/37_-122/8_2/4_0/8_4/im_37.848887_-122.204212_60.000000_0.000000.jpg\x00http://imagenet.stanford.edu/internal/data/geo/gsv/37_-122/8_1/0_9/9_1/im_37.809542_-122.191406_60.000000_0.000000.jpg\x00http://imagenet.stanford.edu/internal/data/geo/gsv/37_-122/8_2/4_2/2_3/im_37.842367_-122.222992_60.000000_0.000000.jpg\x00http://imagenet.stanford.edu/internal/data/geo/gsv/37_-122/7_1/4_9/6_6/im_37.746589_-122.196244_60.000000_0.000000.jpg\x00http://imagenet.stanford.edu/internal/data/geo/gsv/37_-122/8_2/6_5/6_6/im_37.866199_-122.256854_60.000000_0.000000.jpg\x00http://imagenet.stanford.edu/internal/data/geo/gsv/37_-122/7_2/8_7/5_8/im_37.785035_-122.278481_60.000000_0.000000.jpg\x00http://imagenet.stanford.edu/internal/data/geo/gsv/37_-122/7_2/6_1/7_9/im_37.767724_-122.219578_60.000000_0.000000.jpg\x00http://imagenet.stanford.edu/internal/data/geo/gsv/37_-122/8_2/2_8/6_9/im_37.825955_-122.289863_60.000000_0.000000.jpg\x00http://imagenet.stanford.edu/internal/data/geo/gsv/37_-122/7_2/8_3/3_3/im_37.783911_-122.233236_60.000000_0.000000.jpg\x00http://imagenet.stanford.edu/internal/data/geo/gsv/37_-122/8_2/5_4/7_7/im_37.857206_-122.247464_60.000000_0.000000.jpg\x00http://imagenet.stanford.edu/internal/data/geo/gsv/37_-122/8_2/5_6/1_2/im_37.851810_-122.262546_60.000000_0.000000.jpg\x00http://imagenet.stanford.edu/internal/data/geo/gsv/37_-122/7_1/4_9/0_2/im_37.740519_-122.192260_60.000000_0.000000.jpg\x00http://imagenet.stanford.edu/internal/data/geo/gsv/37_-122/8_2/2_6/6_6/im_37.826629_-122.266245_60.000000_0.000000.jpg\x00http://imagenet.stanford.edu/internal/data/geo/gsv/37_-122/7_2/4_0/9_3/im_37.749737_-122.203358_60.000000_0.000000.jpg\x00http://imagenet.stanford.edu/internal/data/geo/gsv/37_-122/8_2/0_7/2_8/im_37.802572_-122.278196_60.000000_0.000000.jpg\x00http://imagenet.stanford.edu/internal/data/geo/gsv/37_-122/8_2/1_0/8_0/im_37.818086_-122.200228_60.000000_0.000000.jpg\x00http://imagenet.stanford.edu/internal/data/geo/gsv/37_-122/8_2/5_5/3_4/im_37.853609_-122.254578_60.000000_0.000000.jpg\x00http://imagenet.stanford.edu/internal/data/geo/gsv/37_-122/8_2/0_3/3_3/im_37.803921_-122.232952_60.000000_0.000000.jpg\x00http://imagenet.stanford.edu/internal/data/geo/gsv/37_-122/7_2/7_2/0_4/im_37.770197_-122.224700_60.000000_0.000000.jpg\x00http://imagenet.stanford.edu/internal/data/geo/gsv/37_-122/8_2/0_0/5_2/im_37.805495_-122.202504_60.000000_0.000000.jpg\x00http://imagenet.stanford.edu/internal/data/geo/gsv/37_-122/7_2/8_3/3_1/im_37.783237_-122.231244_60.000000_0.000000.jpg\x00http://imagenet.stanford.edu/internal/data/geo/gsv/37_-122/8_2/4_8/3_2/im_37.843491_-122.282465_60.000000_0.000000.jpg\x00http://imagenet.stanford.edu/internal/data/geo/gsv/37_-122/8_2/4_8/7_6/im_37.847089_-122.286164_60.000000_0.000000.jpg\x00http://imagenet.stanford.edu/internal/data/geo/gsv/37_-122/7_2/2_0/0_7/im_37.720284_-122.207626_60.000000_0.000000.jpg\x00http://imagenet.stanford.edu/internal/data/geo/gsv/37_-122/7_1/6_7/9_3/im_37.769297_-122.173195_60.000000_0.000000.jpg\x00http://imagenet.stanford.edu/internal/data/geo/gsv/37_-122/7_1/8_6/5_3/im_37.785935_-122.163520_60.000000_0.000000.jpg\x00http://imagenet.stanford.edu/internal/data/geo/gsv/37_-122/7_1/5_7/1_3/im_37.751086_-122.173479_60.000000_0.000000.jpg\x00http://imagenet.stanford.edu/internal/data/geo/gsv/37_-122/7_1/5_7/7_6/im_37.757156_-122.176610_60.000000_0.000000.jpg\x00http://imagenet.stanford.edu/internal/data/geo/gsv/37_-122/8_2/4_5/9_7/im_37.849112_-122.257139_60.000000_0.000000.jpg\x00http://imagenet.stanford.edu/internal/data/geo/gsv/37_-122/7_2/8_2/3_0/im_37.783012_-122.220431_60.000000_0.000000.jpg\x00http://imagenet.stanford.edu/internal/data/geo/gsv/37_-122/8_2/3_9/7_6/im_37.837871_-122.296692_60.000000_0.000000.jpg\x00http://imagenet.stanford.edu/internal/data/geo/gsv/37_-122/7_2/7_9/9_4/im_37.779640_-122.294131_60.000000_0.000000.jpg\x00http://imagenet.stanford.edu/internal/data/geo/gsv/37_-122/8_1/0_7/1_5/im_37.801673_-122.175471_60.000000_0.000000.jpg\x00http://imagenet.stanford.edu/internal/data/geo/gsv/37_-122/7_2/8_2/4_0/im_37.784811_-122.220147_60.000000_0.000000.jpg\x00http://imagenet.stanford.edu/internal/data/geo/gsv/37_-122/8_2/0_3/4_3/im_37.804596_-122.233805_60.000000_0.000000.jpg\x00http://imagenet.stanford.edu/internal/data/geo/gsv/37_-122/8_2/0_0/3_9/im_37.803921_-122.209049_60.000000_0.000000.jpg\x00http://imagenet.stanford.edu/internal/data/geo/gsv/37_-122/7_2/7_8/9_0/im_37.779190_-122.280188_60.000000_0.000000.jpg\x00http://imagenet.stanford.edu/internal/data/geo/gsv/37_-122/7_1/8_9/4_0/im_37.784361_-122.190553_60.000000_0.000000.jpg\x00http://imagenet.stanford.edu/internal/data/geo/gsv/37_-122/7_2/8_9/0_0/im_37.780314_-122.290717_60.000000_0.000000.jpg\x00http://imagenet.stanford.edu/internal/data/geo/gsv/37_-122/7_2/6_0/2_4/im_37.762777_-122.204212_60.000000_0.000000.jpg\x00http://imagenet.stanford.edu/internal/data/geo/gsv/37_-122/8_2/6_7/1_4/im_37.861253_-122.274212_60.000000_0.000000.jpg\x00http://imagenet.stanford.edu/internal/data/geo/gsv/37_-122/7_1/2_8/5_3/im_37.725680_-122.183439_60.000000_0.000000.jpg\x00http://imagenet.stanford.edu/internal/data/geo/gsv/37_-122/7_2/8_2/1_1/im_37.780989_-122.221569_60.000000_0.000000.jpg\x00http://imagenet.stanford.edu/internal/data/geo/gsv/37_-122/8_2/5_8/7_2/im_37.857656_-122.282749_60.000000_0.000000.jpg\x00http://imagenet.stanford.edu/internal/data/geo/gsv/37_-122/8_2/6_6/7_4/im_37.867099_-122.264822_60.000000_0.000000.jpg\x00http://imagenet.stanford.edu/internal/data/geo/gsv/37_-122/7_1/8_7/2_4/im_37.782562_-122.174049_60.000000_0.000000.jpg\x00http://imagenet.stanford.edu/internal/data/geo/gsv/37_-122/8_2/2_6/5_7/im_37.825505_-122.267098_60.000000_0.000000.jpg\x00http://imagenet.stanford.edu/internal/data/geo/gsv/37_-122/8_2/0_5/9_0/im_37.809317_-122.250879_60.000000_0.000000.jpg\x00http://imagenet.stanford.edu/internal/data/geo/gsv/37_-122/8_2/4_2/2_5/im_37.842142_-122.224984_60.000000_0.000000.jpg\x00http://imagenet.stanford.edu/internal/data/geo/gsv/37_-122/8_2/2_0/7_8/im_37.827079_-122.208195_60.000000_0.000000.jpg\x00http://imagenet.stanford.edu/internal/data/geo/gsv/37_-122/8_2/5_4/6_0/im_37.856307_-122.240635_60.000000_0.000000.jpg\x00http://imagenet.stanford.edu/internal/data/geo/gsv/37_-122/7_1/5_8/4_1/im_37.754459_-122.181162_60.000000_0.000000.jpg\x00http://imagenet.stanford.edu/internal/data/geo/gsv/37_-122/7_1/3_9/8_9/im_37.738271_-122.199659_60.000000_0.000000.jpg\x00http://imagenet.stanford.edu/internal/data/geo/gsv/37_-122/7_1/9_7/7_2/im_37.796951_-122.172910_60.000000_0.000000.jpg\x00http://imagenet.stanford.edu/internal/data/geo/gsv/37_-122/8_2/1_4/3_5/im_37.813814_-122.245757_60.000000_0.000000.jpg\x00http://imagenet.stanford.edu/internal/data/geo/gsv/37_-122/8_1/0_8/4_3/im_37.804596_-122.183439_60.000000_0.000000.jpg\x00http://imagenet.stanford.edu/internal/data/geo/gsv/37_-122/8_2/6_3/6_1/im_37.866424_-122.230960_60.000000_0.000000.jpg\x00http://imagenet.stanford.edu/internal/data/geo/gsv/37_-122/8_2/6_3/3_5/im_37.863276_-122.235228_60.000000_0.000000.jpg\x00http://imagenet.stanford.edu/internal/data/geo/gsv/37_-122/8_2/6_6/3_0/im_37.863052_-122.260269_60.000000_0.000000.jpg\x00http://imagenet.stanford.edu/internal/data/geo/gsv/37_-122/8_2/2_5/8_6/im_37.828653_-122.256001_60.000000_0.000000.jpg\x00http://imagenet.stanford.edu/internal/data/geo/gsv/37_-122/8_2/2_0/7_6/im_37.827079_-122.206488_60.000000_0.000000.jpg\x00http://imagenet.stanford.edu/internal/data/geo/gsv/37_-122/8_2/1_6/7_9/im_37.817861_-122.269375_60.000000_0.000000.jpg\x00http://imagenet.stanford.edu/internal/data/geo/gsv/37_-122/7_1/8_9/6_2/im_37.786834_-122.191976_60.000000_0.000000.jpg\x00http://imagenet.stanford.edu/internal/data/geo/gsv/37_-122/8_2/4_1/3_1/im_37.843267_-122.211610_60.000000_0.000000.jpg\x00http://imagenet.stanford.edu/internal/data/geo/gsv/37_-122/8_2/3_2/6_2/im_37.836746_-122.222423_60.000000_0.000000.jpg\x00http://imagenet.stanford.edu/internal/data/geo/gsv/37_-122/8_2/4_1/0_7/im_37.840344_-122.217586_60.000000_0.000000.jpg\x00http://imagenet.stanford.edu/internal/data/geo/gsv/37_-122/8_2/5_7/9_5/im_37.859454_-122.275920_60.000000_0.000000.jpg\x00http://imagenet.stanford.edu/internal/data/geo/gsv/37_-122/8_2/5_8/6_6/im_37.856082_-122.286733_60.000000_0.000000.jpg\x00http://imagenet.stanford.edu/internal/data/geo/gsv/37_-122/7_1/7_6/9_3/im_37.779190_-122.163805_60.000000_0.000000.jpg\x00http://imagenet.stanford.edu/internal/data/geo/gsv/37_-122/8_2/4_1/2_4/im_37.842142_-122.214456_60.000000_0.000000.jpg\x00http://imagenet.stanford.edu/internal/data/geo/gsv/37_-122/8_2/3_9/4_3/im_37.834498_-122.292993_60.000000_0.000000.jpg\x00http://imagenet.stanford.edu/internal/data/geo/gsv/37_-122/7_1/8_8/2_8/im_37.782113_-122.188845_60.000000_0.000000.jpg\x00http://imagenet.stanford.edu/internal/data/geo/gsv/37_-122/8_2/0_1/1_9/im_37.801448_-122.219008_60.000000_0.000000.jpg\x00http://imagenet.stanford.edu/internal/data/geo/gsv/37_-122/8_2/3_7/1_1/im_37.831800_-122.271651_60.000000_0.000000.jpg\x00http://imagenet.stanford.edu/internal/data/geo/gsv/37_-122/8_2/3_1/0_0/im_37.830451_-122.210187_60.000000_0.000000.jpg\x00http://imagenet.stanford.edu/internal/data/geo/gsv/37_-122/7_2/7_2/2_0/im_37.772895_-122.220147_60.000000_0.000000.jpg\x00http://imagenet.stanford.edu/internal/data/geo/gsv/37_-122/7_1/9_8/9_5/im_37.798975_-122.185715_60.000000_0.000000.jpg\x00http://imagenet.stanford.edu/internal/data/geo/gsv/37_-122/8_2/3_9/6_5/im_37.836746_-122.295839_60.000000_0.000000.jpg\x00http://imagenet.stanford.edu/internal/data/geo/gsv/37_-122/7_2/7_2/9_2/im_37.779415_-122.222423_60.000000_0.000000.jpg\x00http://imagenet.stanford.edu/internal/data/geo/gsv/37_-122/8_2/1_2/1_9/im_37.811341_-122.228968_60.000000_0.000000.jpg\x00http://imagenet.stanford.edu/internal/data/geo/gsv/37_-122/7_1/8_6/6_6/im_37.786160_-122.166650_60.000000_0.000000.jpg\x00http://imagenet.stanford.edu/internal/data/geo/gsv/37_-122/8_2/5_7/1_6/im_37.851810_-122.276204_60.000000_0.000000.jpg\x00http://imagenet.stanford.edu/internal/data/geo/gsv/37_-122/7_2/9_1/4_5/im_37.794703_-122.215594_60.000000_0.000000.jpg\x00http://imagenet.stanford.edu/internal/data/geo/gsv/37_-122/8_2/7_7/2_8/im_37.872944_-122.278765_60.000000_0.000000.jpg\x00http://imagenet.stanford.edu/internal/data/geo/gsv/37_-122/8_2/2_4/0_9/im_37.820334_-122.249456_60.000000_0.000000.jpg\x00http://imagenet.stanford.edu/internal/data/geo/gsv/37_-122/8_2/3_6/2_2/im_37.832475_-122.262261_60.000000_0.000000.jpg\x00http://imagenet.stanford.edu/internal/data/geo/gsv/37_-122/7_1/6_6/7_6/im_37.767049_-122.166366_60.000000_0.000000.jpg\x00http://imagenet.stanford.edu/internal/data/geo/gsv/37_-122/7_1/2_9/9_9/im_37.729727_-122.199943_60.000000_0.000000.jpg\x00http://imagenet.stanford.edu/internal/data/geo/gsv/37_-122/8_2/2_5/2_9/im_37.822357_-122.259700_60.000000_0.000000.jpg\x00http://imagenet.stanford.edu/internal/data/geo/gsv/37_-122/8_2/3_8/0_6/im_37.830002_-122.286733_60.000000_0.000000.jpg\x00http://imagenet.stanford.edu/internal/data/geo/gsv/37_-122/7_1/7_9/5_6/im_37.775593_-122.196528_60.000000_0.000000.jpg\x00http://imagenet.stanford.edu/internal/data/geo/gsv/37_-122/8_2/6_5/0_0/im_37.860803_-122.250594_60.000000_0.000000.jpg\x00http://imagenet.stanford.edu/internal/data/geo/gsv/37_-122/8_1/0_9/0_8/im_37.800099_-122.198520_60.000000_0.000000.jpg\x00http://imagenet.stanford.edu/internal/data/geo/gsv/37_-122/7_2/5_1/7_0/im_37.757156_-122.210472_60.000000_0.000000.jpg\x00http://imagenet.stanford.edu/internal/data/geo/gsv/37_-122/8_2/7_7/9_6/im_37.879239_-122.276489_60.000000_0.000000.jpg\x00http://imagenet.stanford.edu/internal/data/geo/gsv/37_-122/7_1/6_5/2_8/im_37.762103_-122.158113_60.000000_0.000000.jpg\x00http://imagenet.stanford.edu/internal/data/geo/gsv/37_-122/7_2/3_0/5_1/im_37.735798_-122.201651_60.000000_0.000000.jpg\x00http://imagenet.stanford.edu/internal/data/geo/gsv/37_-122/8_2/0_2/0_3/im_37.800549_-122.222992_60.000000_0.000000.jpg\x00http://imagenet.stanford.edu/internal/data/geo/gsv/37_-122/7_1/6_8/8_5/im_37.768848_-122.185715_60.000000_0.000000.jpg\x00http://imagenet.stanford.edu/internal/data/geo/gsv/37_-122/8_2/1_0/2_9/im_37.812015_-122.209618_60.000000_0.000000.jpg\x00http://imagenet.stanford.edu/internal/data/geo/gsv/37_-122/8_2/2_0/6_7/im_37.826854_-122.207911_60.000000_0.000000.jpg\x00http://imagenet.stanford.edu/internal/data/geo/gsv/37_-122/8_2/0_7/1_1/im_37.801898_-122.271082_60.000000_0.000000.jpg\x00http://imagenet.stanford.edu/internal/data/geo/gsv/37_-122/8_2/2_7/7_5/im_37.827304_-122.275351_60.000000_0.000000.jpg\x00http://imagenet.stanford.edu/internal/data/geo/gsv/37_-122/7_2/7_8/6_7/im_37.776492_-122.287587_60.000000_0.000000.jpg\x00http://imagenet.stanford.edu/internal/data/geo/gsv/37_-122/8_2/2_6/6_8/im_37.826629_-122.267952_60.000000_0.000000.jpg\x00http://imagenet.stanford.edu/internal/data/geo/gsv/37_-122/8_1/4_9/1_8/im_37.841693_-122.197951_60.000000_0.000000.jpg\x00http://imagenet.stanford.edu/internal/data/geo/gsv/37_-122/7_2/3_0/3_5/im_37.733549_-122.205634_60.000000_0.000000.jpg\x00http://imagenet.stanford.edu/internal/data/geo/gsv/37_-122/7_1/4_9/1_2/im_37.741194_-122.192260_60.000000_0.000000.jpg\x00http://imagenet.stanford.edu/internal/data/geo/gsv/37_-122/8_1/2_9/1_9/im_37.821008_-122.199374_60.000000_0.000000.jpg\x00http://imagenet.stanford.edu/internal/data/geo/gsv/37_-122/8_2/1_2/7_9/im_37.817411_-122.228968_60.000000_0.000000.jpg\x00http://imagenet.stanford.edu/internal/data/geo/gsv/37_-122/8_2/7_6/8_8/im_37.878565_-122.268521_60.000000_0.000000.jpg\x00http://imagenet.stanford.edu/internal/data/geo/gsv/37_-122/7_1/9_9/0_3/im_37.790207_-122.193398_60.000000_0.000000.jpg\x00http://imagenet.stanford.edu/internal/data/geo/gsv/37_-122/7_2/8_2/4_6/im_37.784811_-122.226407_60.000000_0.000000.jpg\x00http://imagenet.stanford.edu/internal/data/geo/gsv/37_-122/7_1/5_8/6_8/im_37.756257_-122.188845_60.000000_0.000000.jpg\x00http://imagenet.stanford.edu/internal/data/geo/gsv/37_-122/8_2/2_8/4_9/im_37.824606_-122.289009_60.000000_0.000000.jpg\x00http://imagenet.stanford.edu/internal/data/geo/gsv/37_-122/8_2/4_4/9_4/im_37.849337_-122.244619_60.000000_0.000000.jpg\x00http://imagenet.stanford.edu/internal/data/geo/gsv/37_-122/7_2/5_1/7_1/im_37.757606_-122.211610_60.000000_0.000000.jpg\x00http://imagenet.stanford.edu/internal/data/geo/gsv/37_-122/7_1/6_9/2_0/im_37.762103_-122.190837_60.000000_0.000000.jpg\x00http://imagenet.stanford.edu/internal/data/geo/gsv/37_-122/8_2/3_2/5_0/im_37.835173_-122.220147_60.000000_0.000000.jpg\x00http://imagenet.stanford.edu/internal/data/geo/gsv/37_-122/8_2/1_5/5_4/im_37.815163_-122.254293_60.000000_0.000000.jpg\x00http://imagenet.stanford.edu/internal/data/geo/gsv/37_-122/8_2/5_3/7_3/im_37.857431_-122.233236_60.000000_0.000000.jpg\x00http://imagenet.stanford.edu/internal/data/geo/gsv/37_-122/8_2/2_7/6_8/im_37.826854_-122.278481_60.000000_0.000000.jpg\x00http://imagenet.stanford.edu/internal/data/geo/gsv/37_-122/7_2/6_0/3_3/im_37.763452_-122.203073_60.000000_0.000000.jpg\x00http://imagenet.stanford.edu/internal/data/geo/gsv/37_-122/7_1/7_7/9_9/im_37.779190_-122.179740_60.000000_0.000000.jpg\x00http://imagenet.stanford.edu/internal/data/geo/gsv/37_-122/8_2/0_7/7_5/im_37.807743_-122.275635_60.000000_0.000000.jpg\x00http://imagenet.stanford.edu/internal/data/geo/gsv/37_-122/8_2/1_3/5_9/im_37.815837_-122.239212_60.000000_0.000000.jpg\x00http://imagenet.stanford.edu/internal/data/geo/gsv/37_-122/7_2/9_1/1_5/im_37.791556_-122.215025_60.000000_0.000000.jpg\x00http://imagenet.stanford.edu/internal/data/geo/gsv/37_-122/7_2/1_0/8_5/im_37.718036_-122.205919_60.000000_0.000000.jpg\x00http://imagenet.stanford.edu/internal/data/geo/gsv/37_-122/8_2/3_7/9_2/im_37.839444_-122.272790_60.000000_0.000000.jpg\x00http://imagenet.stanford.edu/internal/data/geo/gsv/37_-122/8_2/6_2/0_2/im_37.860803_-122.222139_60.000000_0.000000.jpg\x00http://imagenet.stanford.edu/internal/data/geo/gsv/37_-122/8_2/3_0/7_5/im_37.837871_-122.205065_60.000000_0.000000.jpg\x00http://imagenet.stanford.edu/internal/data/geo/gsv/37_-122/7_1/7_7/6_9/im_37.776042_-122.179171_60.000000_0.000000.jpg\x00http://imagenet.stanford.edu/internal/data/geo/gsv/37_-122/8_2/6_7/2_9/im_37.862602_-122.279050_60.000000_0.000000.jpg\x00http://imagenet.stanford.edu/internal/data/geo/gsv/37_-122/7_1/4_8/3_8/im_37.743667_-122.188845_60.000000_0.000000.jpg\x00http://imagenet.stanford.edu/internal/data/geo/gsv/37_-122/7_1/8_9/2_8/im_37.782787_-122.197951_60.000000_0.000000.jpg\x00http://imagenet.stanford.edu/internal/data/geo/gsv/37_-122/8_2/0_4/8_1/im_37.808418_-122.241773_60.000000_0.000000.jpg\x00http://imagenet.stanford.edu/internal/data/geo/gsv/37_-122/7_1/8_7/1_1/im_37.781438_-122.171772_60.000000_0.000000.jpg\x00http://imagenet.stanford.edu/internal/data/geo/gsv/37_-122/7_2/7_0/3_0/im_37.773569_-122.200512_60.000000_0.000000.jpg\x00http://imagenet.stanford.edu/internal/data/geo/gsv/37_-122/8_2/0_7/3_6/im_37.803022_-122.276773_60.000000_0.000000.jpg\x00http://imagenet.stanford.edu/internal/data/geo/gsv/37_-122/8_2/6_4/2_8/im_37.862602_-122.248887_60.000000_0.000000.jpg\x00http://imagenet.stanford.edu/internal/data/geo/gsv/37_-122/8_2/3_0/9_3/im_37.838995_-122.203358_60.000000_0.000000.jpg\x00http://imagenet.stanford.edu/internal/data/geo/gsv/37_-122/8_2/1_5/0_0/im_37.810891_-122.250879_60.000000_0.000000.jpg\x00http://imagenet.stanford.edu/internal/data/geo/gsv/37_-122/7_2/8_1/5_4/im_37.785260_-122.214171_60.000000_0.000000.jpg\x00http://imagenet.stanford.edu/internal/data/geo/gsv/37_-122/7_1/9_8/0_5/im_37.790207_-122.185715_60.000000_0.000000.jpg\x00http://imagenet.stanford.edu/internal/data/geo/gsv/37_-122/8_2/3_1/1_5/im_37.831575_-122.215878_60.000000_0.000000.jpg\x00http://imagenet.stanford.edu/internal/data/geo/gsv/37_-122/8_2/4_4/7_4/im_37.847313_-122.244619_60.000000_0.000000.jpg\x00http://imagenet.stanford.edu/internal/data/geo/gsv/37_-122/7_2/9_7/0_5/im_37.790656_-122.275066_60.000000_0.000000.jpg\x00http://imagenet.stanford.edu/internal/data/geo/gsv/37_-122/8_2/4_6/0_2/im_37.840569_-122.262546_60.000000_0.000000.jpg\x00http://imagenet.stanford.edu/internal/data/geo/gsv/37_-122/7_1/6_9/8_1/im_37.768173_-122.191691_60.000000_0.000000.jpg\x00http://imagenet.stanford.edu/internal/data/geo/gsv/37_-122/7_1/9_8/8_8/im_37.798750_-122.188845_60.000000_0.000000.jpg\x00http://imagenet.stanford.edu/internal/data/geo/gsv/37_-122/7_1/8_9/0_0/im_37.780314_-122.190268_60.000000_0.000000.jpg\x00http://imagenet.stanford.edu/internal/data/geo/gsv/37_-122/7_2/8_1/1_5/im_37.781888_-122.215309_60.000000_0.000000.jpg\x00http://imagenet.stanford.edu/internal/data/geo/gsv/37_-122/8_2/3_0/0_1/im_37.830901_-122.201366_60.000000_0.000000.jpg\x00http://imagenet.stanford.edu/internal/data/geo/gsv/37_-122/8_2/0_3/5_3/im_37.805045_-122.233805_60.000000_0.000000.jpg\x00http://imagenet.stanford.edu/internal/data/geo/gsv/37_-122/7_2/9_1/0_5/im_37.790431_-122.215594_60.000000_0.000000.jpg\x00http://imagenet.stanford.edu/internal/data/geo/gsv/37_-122/8_2/7_7/8_7/im_37.878790_-122.277343_60.000000_0.000000.jpg\x00http://imagenet.stanford.edu/internal/data/geo/gsv/37_-122/8_1/2_8/1_8/im_37.821233_-122.188276_60.000000_0.000000.jpg\x00http://imagenet.stanford.edu/internal/data/geo/gsv/37_-122/7_1/5_6/7_7/im_37.757156_-122.167504_60.000000_0.000000.jpg\x00http://imagenet.stanford.edu/internal/data/geo/gsv/37_-122/7_2/9_0/7_1/im_37.797401_-122.201651_60.000000_0.000000.jpg\x00http://imagenet.stanford.edu/internal/data/geo/gsv/37_-122/7_1/6_8/9_0/im_37.769522_-122.180024_60.000000_0.000000.jpg\x00http://imagenet.stanford.edu/internal/data/geo/gsv/37_-122/8_2/3_0/3_1/im_37.833824_-122.201651_60.000000_0.000000.jpg\x00http://imagenet.stanford.edu/internal/data/geo/gsv/37_-122/8_2/2_7/6_0/im_37.826404_-122.270513_60.000000_0.000000.jpg\x00http://imagenet.stanford.edu/internal/data/geo/gsv/37_-122/7_2/7_8/3_8/im_37.773569_-122.288156_60.000000_0.000000.jpg\x00http://imagenet.stanford.edu/internal/data/geo/gsv/37_-122/7_1/4_9/4_0/im_37.744791_-122.189984_60.000000_0.000000.jpg\x00http://imagenet.stanford.edu/internal/data/geo/gsv/37_-122/7_1/5_8/8_4/im_37.758056_-122.184293_60.000000_0.000000.jpg\x00http://imagenet.stanford.edu/internal/data/geo/gsv/37_-122/8_2/4_4/7_1/im_37.847538_-122.241488_60.000000_0.000000.jpg\x00http://imagenet.stanford.edu/internal/data/geo/gsv/37_-122/7_1/7_6/2_8/im_37.772220_-122.168927_60.000000_0.000000.jpg\x00http://imagenet.stanford.edu/internal/data/geo/gsv/37_-122/8_2/5_4/6_1/im_37.856082_-122.241488_60.000000_0.000000.jpg\x00http://imagenet.stanford.edu/internal/data/geo/gsv/37_-122/7_1/3_9/6_2/im_37.736922_-122.192829_60.000000_0.000000.jpg\x00http://imagenet.stanford.edu/internal/data/geo/gsv/37_-122/8_2/3_7/1_7/im_37.831351_-122.277912_60.000000_0.000000.jpg\x00http://imagenet.stanford.edu/internal/data/geo/gsv/37_-122/7_2/7_2/4_1/im_37.774918_-122.221000_60.000000_0.000000.jpg\x00http://imagenet.stanford.edu/internal/data/geo/gsv/37_-122/8_2/0_3/7_8/im_37.807069_-122.238643_60.000000_0.000000.jpg\x00http://imagenet.stanford.edu/internal/data/geo/gsv/37_-122/7_1/7_7/9_9/im_37.779864_-122.179455_60.000000_0.000000.jpg\x00http://imagenet.stanford.edu/internal/data/geo/gsv/37_-122/7_2/8_7/9_6/im_37.789532_-122.276773_60.000000_0.000000.jpg\x00http://imagenet.stanford.edu/internal/data/geo/gsv/37_-122/7_1/7_9/2_4/im_37.772895_-122.194537_60.000000_0.000000.jpg\x00http://imagenet.stanford.edu/internal/data/geo/gsv/37_-122/8_2/7_6/3_2/im_37.873619_-122.262546_60.000000_0.000000.jpg\x00http://imagenet.stanford.edu/internal/data/geo/gsv/37_-122/7_2/8_9/0_0/im_37.780539_-122.290717_60.000000_0.000000.jpg\x00http://imagenet.stanford.edu/internal/data/geo/gsv/37_-122/8_2/0_6/8_9/im_37.808418_-122.269944_60.000000_0.000000.jpg\x00http://imagenet.stanford.edu/internal/data/geo/gsv/37_-122/8_2/0_7/8_9/im_37.808418_-122.279619_60.000000_0.000000.jpg\x00http://imagenet.stanford.edu/internal/data/geo/gsv/37_-122/7_2/7_1/2_4/im_37.771995_-122.214171_60.000000_0.000000.jpg\x00http://imagenet.stanford.edu/internal/data/geo/gsv/37_-122/8_2/2_0/8_7/im_37.828203_-122.207057_60.000000_0.000000.jpg\x00http://imagenet.stanford.edu/internal/data/geo/gsv/37_-122/7_2/3_0/0_8/im_37.730402_-122.208764_60.000000_0.000000.jpg\x00http://imagenet.stanford.edu/internal/data/geo/gsv/37_-122/7_1/3_9/3_9/im_37.733100_-122.199374_60.000000_0.000000.jpg\x00http://imagenet.stanford.edu/internal/data/geo/gsv/37_-122/7_1/7_6/8_8/im_37.778515_-122.168642_60.000000_0.000000.jpg\x00http://imagenet.stanford.edu/internal/data/geo/gsv/37_-122/8_2/4_4/9_0/im_37.849562_-122.240350_60.000000_0.000000.jpg\x00http://imagenet.stanford.edu/internal/data/geo/gsv/37_-122/7_2/9_8/9_6/im_37.799200_-122.286448_60.000000_0.000000.jpg\x00http://imagenet.stanford.edu/internal/data/geo/gsv/37_-122/8_2/2_8/0_1/im_37.820559_-122.281042_60.000000_0.000000.jpg\x00http://imagenet.stanford.edu/internal/data/geo/gsv/37_-122/8_2/1_2/1_9/im_37.811790_-122.229822_60.000000_0.000000.jpg\x00http://imagenet.stanford.edu/internal/data/geo/gsv/37_-122/8_2/0_2/7_6/im_37.807294_-122.226407_60.000000_0.000000.jpg\x00http://imagenet.stanford.edu/internal/data/geo/gsv/37_-122/7_2/8_8/1_2/im_37.781663_-122.282465_60.000000_0.000000.jpg\x00http://imagenet.stanford.edu/internal/data/geo/gsv/37_-122/7_1/5_8/2_6/im_37.752885_-122.186000_60.000000_0.000000.jpg\x00http://imagenet.stanford.edu/internal/data/geo/gsv/37_-122/8_2/4_5/3_0/im_37.843716_-122.250594_60.000000_0.000000.jpg\x00http://imagenet.stanford.edu/internal/data/geo/gsv/37_-122/8_2/0_3/4_4/im_37.804821_-122.234090_60.000000_0.000000.jpg\x00http://imagenet.stanford.edu/internal/data/geo/gsv/37_-122/7_2/7_9/7_1/im_37.777391_-122.291001_60.000000_0.000000.jpg\x00http://imagenet.stanford.edu/internal/data/geo/gsv/37_-122/7_1/8_8/6_0/im_37.786160_-122.180878_60.000000_0.000000.jpg\x00http://imagenet.stanford.edu/internal/data/geo/gsv/37_-122/8_2/5_8/5_9/im_37.855632_-122.289009_60.000000_0.000000.jpg\x00http://imagenet.stanford.edu/internal/data/geo/gsv/37_-122/7_2/8_9/0_1/im_37.780539_-122.291855_60.000000_0.000000.jpg\x00http://imagenet.stanford.edu/internal/data/geo/gsv/37_-122/8_2/1_1/6_6/im_37.816287_-122.216447_60.000000_0.000000.jpg\x00http://imagenet.stanford.edu/internal/data/geo/gsv/37_-122/7_1/6_5/6_7/im_37.766375_-122.157829_60.000000_0.000000.jpg\x00http://imagenet.stanford.edu/internal/data/geo/gsv/37_-122/8_2/3_9/6_3/im_37.836746_-122.293278_60.000000_0.000000.jpg\x00http://imagenet.stanford.edu/internal/data/geo/gsv/37_-122/8_2/1_4/7_8/im_37.816961_-122.248602_60.000000_0.000000.jpg\x00http://imagenet.stanford.edu/internal/data/geo/gsv/37_-122/8_1/0_8/1_8/im_37.801898_-122.187992_60.000000_0.000000.jpg\x00http://imagenet.stanford.edu/internal/data/geo/gsv/37_-122/7_1/3_9/8_6/im_37.738945_-122.196528_60.000000_0.000000.jpg\x00http://imagenet.stanford.edu/internal/data/geo/gsv/37_-122/8_2/5_6/0_4/im_37.850461_-122.264253_60.000000_0.000000.jpg\x00http://imagenet.stanford.edu/internal/data/geo/gsv/37_-122/7_2/7_1/4_2/im_37.774019_-122.212464_60.000000_0.000000.jpg\x00http://imagenet.stanford.edu/internal/data/geo/gsv/37_-122/8_2/0_6/6_9/im_37.806394_-122.269090_60.000000_0.000000.jpg\x00http://imagenet.stanford.edu/internal/data/geo/gsv/37_-122/8_2/0_4/9_8/im_37.809317_-122.248887_60.000000_0.000000.jpg\x00http://imagenet.stanford.edu/internal/data/geo/gsv/37_-122/7_2/7_0/7_1/im_37.777841_-122.201935_60.000000_0.000000.jpg\x00http://imagenet.stanford.edu/internal/data/geo/gsv/37_-122/8_2/5_8/5_6/im_37.854958_-122.286733_60.000000_0.000000.jpg\x00http://imagenet.stanford.edu/internal/data/geo/gsv/37_-122/7_2/9_1/2_2/im_37.792005_-122.212748_60.000000_0.000000.jpg\x00http://imagenet.stanford.edu/internal/data/geo/gsv/37_-122/8_2/4_6/1_9/im_37.841468_-122.269375_60.000000_0.000000.jpg\x00http://imagenet.stanford.edu/internal/data/geo/gsv/37_-122/8_2/1_3/8_3/im_37.818760_-122.233805_60.000000_0.000000.jpg\x00http://imagenet.stanford.edu/internal/data/geo/gsv/37_-122/7_2/8_0/3_1/im_37.783686_-122.201935_60.000000_0.000000.jpg\x00http://imagenet.stanford.edu/internal/data/geo/gsv/37_-122/7_1/4_8/4_9/im_37.744116_-122.189130_60.000000_0.000000.jpg\x00http://imagenet.stanford.edu/internal/data/geo/gsv/37_-122/8_2/3_5/2_0/im_37.832924_-122.250879_60.000000_0.000000.jpg\x00http://imagenet.stanford.edu/internal/data/geo/gsv/37_-122/7_1/7_7/0_9/im_37.770871_-122.179455_60.000000_0.000000.jpg\x00http://imagenet.stanford.edu/internal/data/geo/gsv/37_-122/7_1/7_7/9_5/im_37.779190_-122.175187_60.000000_0.000000.jpg\x00http://imagenet.stanford.edu/internal/data/geo/gsv/37_-122/7_2/7_0/2_0/im_37.772220_-122.200797_60.000000_0.000000.jpg\x00http://imagenet.stanford.edu/internal/data/geo/gsv/37_-122/8_2/1_3/6_4/im_37.816737_-122.234944_60.000000_0.000000.jpg\x00http://imagenet.stanford.edu/internal/data/geo/gsv/37_-122/8_2/0_1/3_9/im_37.803247_-122.219578_60.000000_0.000000.jpg\x00http://imagenet.stanford.edu/internal/data/geo/gsv/37_-122/8_2/0_2/6_4/im_37.806170_-122.224700_60.000000_0.000000.jpg\x00http://imagenet.stanford.edu/internal/data/geo/gsv/37_-122/8_2/3_2/9_2/im_37.839444_-122.222423_60.000000_0.000000.jpg\x00http://imagenet.stanford.edu/internal/data/geo/gsv/37_-122/8_2/6_1/0_0/im_37.860129_-122.210187_60.000000_0.000000.jpg\x00http://imagenet.stanford.edu/internal/data/geo/gsv/37_-122/8_2/4_1/1_4/im_37.841468_-122.214171_60.000000_0.000000.jpg\x00http://imagenet.stanford.edu/internal/data/geo/gsv/37_-122/7_1/9_8/5_6/im_37.795378_-122.186569_60.000000_0.000000.jpg\x00http://imagenet.stanford.edu/internal/data/geo/gsv/37_-122/8_2/4_3/8_8/im_37.848213_-122.238927_60.000000_0.000000.jpg\x00http://imagenet.stanford.edu/internal/data/geo/gsv/37_-122/8_2/5_4/1_3/im_37.851360_-122.243765_60.000000_0.000000.jpg\x00http://imagenet.stanford.edu/internal/data/geo/gsv/37_-122/7_1/2_7/1_7/im_37.720959_-122.177463_60.000000_0.000000.jpg\x00http://imagenet.stanford.edu/internal/data/geo/gsv/37_-122/8_2/3_4/9_7/im_37.839220_-122.247180_60.000000_0.000000.jpg\x00http://imagenet.stanford.edu/internal/data/geo/gsv/37_-122/7_2/8_1/1_0/im_37.780989_-122.210756_60.000000_0.000000.jpg\x00http://imagenet.stanford.edu/internal/data/geo/gsv/37_-122/7_2/6_1/7_2/im_37.767049_-122.212748_60.000000_0.000000.jpg\x00http://imagenet.stanford.edu/internal/data/geo/gsv/37_-122/7_1/6_6/1_0/im_37.761878_-122.160390_60.000000_0.000000.jpg\x00http://imagenet.stanford.edu/internal/data/geo/gsv/37_-122/8_2/3_5/9_1/im_37.839669_-122.251448_60.000000_0.000000.jpg\x00http://imagenet.stanford.edu/internal/data/geo/gsv/37_-122/8_2/0_2/1_9/im_37.800998_-122.228968_60.000000_0.000000.jpg\x00http://imagenet.stanford.edu/internal/data/geo/gsv/37_-122/8_2/6_0/0_9/im_37.860803_-122.209334_60.000000_0.000000.jpg\x00http://imagenet.stanford.edu/internal/data/geo/gsv/37_-122/8_2/1_4/3_7/im_37.813814_-122.247749_60.000000_0.000000.jpg\x00http://imagenet.stanford.edu/internal/data/geo/gsv/37_-122/8_2/5_8/3_1/im_37.853609_-122.281611_60.000000_0.000000.jpg\x00http://imagenet.stanford.edu/internal/data/geo/gsv/37_-122/7_2/9_0/5_1/im_37.795378_-122.201081_60.000000_0.000000.jpg\x00http://imagenet.stanford.edu/internal/data/geo/gsv/37_-122/7_2/9_7/4_2/im_37.794254_-122.272790_60.000000_0.000000.jpg\x00http://imagenet.stanford.edu/internal/data/geo/gsv/37_-122/8_2/4_6/0_4/im_37.840119_-122.263968_60.000000_0.000000.jpg\x00http://imagenet.stanford.edu/internal/data/geo/gsv/37_-122/8_1/0_7/2_6/im_37.802347_-122.176040_60.000000_0.000000.jpg\x00http://imagenet.stanford.edu/internal/data/geo/gsv/37_-122/8_1/0_7/2_6/im_37.802347_-122.176325_60.000000_0.000000.jpg\x00http://imagenet.stanford.edu/internal/data/geo/gsv/37_-122/8_1/2_8/8_7/im_37.827978_-122.187138_60.000000_0.000000.jpg\x00http://imagenet.stanford.edu/internal/data/geo/gsv/37_-122/7_1/7_8/6_6/im_37.776942_-122.186854_60.000000_0.000000.jpg\x00http://imagenet.stanford.edu/internal/data/geo/gsv/37_-122/8_2/6_3/5_0/im_37.865300_-122.230106_60.000000_0.000000.jpg\x00http://imagenet.stanford.edu/internal/data/geo/gsv/37_-122/8_2/1_1/7_6/im_37.816961_-122.216732_60.000000_0.000000.jpg\x00http://imagenet.stanford.edu/internal/data/geo/gsv/37_-122/7_1/6_6/5_9/im_37.765250_-122.169211_60.000000_0.000000.jpg\x00http://imagenet.stanford.edu/internal/data/geo/gsv/37_-122/8_2/2_6/2_6/im_37.822132_-122.266245_60.000000_0.000000.jpg\x00http://imagenet.stanford.edu/internal/data/geo/gsv/37_-122/8_2/1_4/9_9/im_37.818985_-122.249741_60.000000_0.000000.jpg\x00http://imagenet.stanford.edu/internal/data/geo/gsv/37_-122/7_2/6_0/9_0/im_37.769747_-122.200797_60.000000_0.000000.jpg\x00http://imagenet.stanford.edu/internal/data/geo/gsv/37_-122/7_2/5_0/4_4/im_37.754459_-122.204781_60.000000_0.000000.jpg\x00http://imagenet.stanford.edu/internal/data/geo/gsv/37_-122/7_1/6_7/3_1/im_37.763901_-122.171772_60.000000_0.000000.jpg\x00http://imagenet.stanford.edu/internal/data/geo/gsv/37_-122/7_1/4_9/1_8/im_37.741643_-122.198236_60.000000_0.000000.jpg\x00http://imagenet.stanford.edu/internal/data/geo/gsv/37_-122/8_2/5_8/0_5/im_37.850686_-122.285595_60.000000_0.000000.jpg\x00http://imagenet.stanford.edu/internal/data/geo/gsv/37_-122/8_1/2_8/2_7/im_37.822807_-122.187138_60.000000_0.000000.jpg\x00http://imagenet.stanford.edu/internal/data/geo/gsv/37_-122/7_2/9_8/7_1/im_37.797176_-122.281895_60.000000_0.000000.jpg\x00http://imagenet.stanford.edu/internal/data/geo/gsv/37_-122/8_2/7_6/0_2/im_37.870246_-122.261976_60.000000_0.000000.jpg\x00http://imagenet.stanford.edu/internal/data/geo/gsv/37_-122/7_1/6_6/7_9/im_37.767049_-122.169211_60.000000_0.000000.jpg\x00http://imagenet.stanford.edu/internal/data/geo/gsv/37_-122/7_1/6_8/9_2/im_37.769297_-122.182016_60.000000_0.000000.jpg\x00http://imagenet.stanford.edu/internal/data/geo/gsv/37_-122/7_1/9_8/1_2/im_37.791780_-122.182016_60.000000_0.000000.jpg\x00http://imagenet.stanford.edu/internal/data/geo/gsv/37_-122/7_1/2_8/3_1/im_37.723882_-122.181162_60.000000_0.000000.jpg\x00http://imagenet.stanford.edu/internal/data/geo/gsv/37_-122/8_2/2_1/8_0/im_37.828877_-122.210472_60.000000_0.000000.jpg\x00http://imagenet.stanford.edu/internal/data/geo/gsv/37_-122/7_1/5_6/8_8/im_37.758281_-122.168927_60.000000_0.000000.jpg\x00http://imagenet.stanford.edu/internal/data/geo/gsv/37_-122/7_2/8_2/9_5/im_37.789532_-122.225838_60.000000_0.000000.jpg\x00http://imagenet.stanford.edu/internal/data/geo/gsv/37_-122/8_2/4_0/7_0/im_37.847763_-122.200512_60.000000_0.000000.jpg\x00http://imagenet.stanford.edu/internal/data/geo/gsv/37_-122/8_2/2_4/2_6/im_37.822807_-122.246610_60.000000_0.000000.jpg\x00http://imagenet.stanford.edu/internal/data/geo/gsv/37_-122/7_2/9_0/7_1/im_37.797851_-122.201651_60.000000_0.000000.jpg\x00http://imagenet.stanford.edu/internal/data/geo/gsv/37_-122/7_1/9_7/4_0/im_37.794703_-122.170918_60.000000_0.000000.jpg\x00http://imagenet.stanford.edu/internal/data/geo/gsv/37_-122/8_2/4_6/3_8/im_37.843716_-122.268237_60.000000_0.000000.jpg\x00http://imagenet.stanford.edu/internal/data/geo/gsv/37_-122/8_2/2_6/9_8/im_37.829102_-122.268521_60.000000_0.000000.jpg\x00http://imagenet.stanford.edu/internal/data/geo/gsv/37_-122/7_1/9_6/2_3/im_37.792905_-122.163235_60.000000_0.000000.jpg\x00http://imagenet.stanford.edu/internal/data/geo/gsv/37_-122/8_2/5_8/2_1/im_37.852709_-122.281326_60.000000_0.000000.jpg\x00http://imagenet.stanford.edu/internal/data/geo/gsv/37_-122/8_1/0_7/1_8/im_37.800998_-122.178601_60.000000_0.000000.jpg\x00http://imagenet.stanford.edu/internal/data/geo/gsv/37_-122/8_1/4_9/0_8/im_37.840344_-122.198520_60.000000_0.000000.jpg\x00http://imagenet.stanford.edu/internal/data/geo/gsv/37_-122/7_1/7_8/8_0/im_37.778515_-122.180309_60.000000_0.000000.jpg\x00http://imagenet.stanford.edu/internal/data/geo/gsv/37_-122/8_2/1_6/9_3/im_37.819435_-122.263399_60.000000_0.000000.jpg\x00http://imagenet.stanford.edu/internal/data/geo/gsv/37_-122/7_1/5_5/5_9/im_37.755583_-122.158967_60.000000_0.000000.jpg\x00http://imagenet.stanford.edu/internal/data/geo/gsv/37_-122/7_2/2_0/3_0/im_37.723207_-122.200797_60.000000_0.000000.jpg\x00http://imagenet.stanford.edu/internal/data/geo/gsv/37_-122/8_2/5_6/0_2/im_37.850011_-122.262546_60.000000_0.000000.jpg\x00http://imagenet.stanford.edu/internal/data/geo/gsv/37_-122/7_2/6_2/9_2/im_37.769747_-122.222139_60.000000_0.000000.jpg\x00http://imagenet.stanford.edu/internal/data/geo/gsv/37_-122/7_1/3_7/7_7/im_37.737371_-122.177748_60.000000_0.000000.jpg\x00http://imagenet.stanford.edu/internal/data/geo/gsv/37_-122/8_2/6_7/6_7/im_37.866424_-122.277058_60.000000_0.000000.jpg\x00http://imagenet.stanford.edu/internal/data/geo/gsv/37_-122/7_2/8_8/1_8/im_37.781438_-122.288440_60.000000_0.000000.jpg\x00http://imagenet.stanford.edu/internal/data/geo/gsv/37_-122/7_2/7_0/5_4/im_37.775368_-122.204212_60.000000_0.000000.jpg\x00http://imagenet.stanford.edu/internal/data/geo/gsv/37_-122/7_1/5_8/7_2/im_37.757381_-122.182016_60.000000_0.000000.jpg\x00http://imagenet.stanford.edu/internal/data/geo/gsv/37_-122/7_1/5_8/1_8/im_37.751761_-122.187992_60.000000_0.000000.jpg\x00http://imagenet.stanford.edu/internal/data/geo/gsv/37_-122/8_2/2_8/9_5/im_37.829552_-122.285310_60.000000_0.000000.jpg\x00http://imagenet.stanford.edu/internal/data/geo/gsv/37_-122/8_2/3_0/6_6/im_37.836746_-122.206488_60.000000_0.000000.jpg\x00http://imagenet.stanford.edu/internal/data/geo/gsv/37_-122/8_2/1_6/0_2/im_37.810216_-122.262546_60.000000_0.000000.jpg\x00http://imagenet.stanford.edu/internal/data/geo/gsv/37_-122/8_1/3_9/0_1/im_37.830451_-122.191122_60.000000_0.000000.jpg\x00http://imagenet.stanford.edu/internal/data/geo/gsv/37_-122/8_2/4_5/8_2/im_37.848662_-122.252302_60.000000_0.000000.jpg\x00http://imagenet.stanford.edu/internal/data/geo/gsv/37_-122/8_2/5_2/6_5/im_37.856532_-122.224984_60.000000_0.000000.jpg\x00http://imagenet.stanford.edu/internal/data/geo/gsv/37_-122/8_2/0_7/9_5/im_37.809767_-122.275635_60.000000_0.000000.jpg\x00http://imagenet.stanford.edu/internal/data/geo/gsv/37_-122/8_2/2_5/8_2/im_37.828877_-122.252017_60.000000_0.000000.jpg\x00http://imagenet.stanford.edu/internal/data/geo/gsv/37_-122/8_2/3_1/6_7/im_37.836297_-122.217586_60.000000_0.000000.jpg\x00http://imagenet.stanford.edu/internal/data/geo/gsv/37_-122/8_2/2_7/5_3/im_37.825730_-122.273928_60.000000_0.000000.jpg\x00http://imagenet.stanford.edu/internal/data/geo/gsv/37_-122/7_2/8_7/1_5/im_37.781888_-122.275066_60.000000_0.000000.jpg\x00http://imagenet.stanford.edu/internal/data/geo/gsv/37_-122/8_2/6_6/6_6/im_37.866874_-122.266245_60.000000_0.000000.jpg\x00http://imagenet.stanford.edu/internal/data/geo/gsv/37_-122/7_2/3_0/0_3/im_37.730851_-122.203073_60.000000_0.000000.jpg\x00http://imagenet.stanford.edu/internal/data/geo/gsv/37_-122/7_1/3_8/6_4/im_37.736697_-122.184577_60.000000_0.000000.jpg\x00http://imagenet.stanford.edu/internal/data/geo/gsv/37_-122/7_2/4_0/2_3/im_37.742767_-122.203642_60.000000_0.000000.jpg\x00http://imagenet.stanford.edu/internal/data/geo/gsv/37_-122/7_2/7_1/7_2/im_37.777841_-122.212464_60.000000_0.000000.jpg\x00http://imagenet.stanford.edu/internal/data/geo/gsv/37_-122/8_2/5_6/3_8/im_37.853609_-122.267952_60.000000_0.000000.jpg\x00http://imagenet.stanford.edu/internal/data/geo/gsv/37_-122/8_2/3_1/3_7/im_37.833599_-122.217586_60.000000_0.000000.jpg\x00http://imagenet.stanford.edu/internal/data/geo/gsv/37_-122/7_2/8_3/2_5/im_37.782113_-122.235513_60.000000_0.000000.jpg\x00http://imagenet.stanford.edu/internal/data/geo/gsv/37_-122/8_1/0_8/6_4/im_37.806394_-122.184008_60.000000_0.000000.jpg\x00http://imagenet.stanford.edu/internal/data/geo/gsv/37_-122/8_2/0_1/2_4/im_37.802572_-122.214456_60.000000_0.000000.jpg\x00http://imagenet.stanford.edu/internal/data/geo/gsv/37_-122/8_2/5_7/2_6/im_37.852035_-122.276489_60.000000_0.000000.jpg\x00http://imagenet.stanford.edu/internal/data/geo/gsv/37_-122/7_1/3_8/3_8/im_37.733100_-122.188276_60.000000_0.000000.jpg\x00http://imagenet.stanford.edu/internal/data/geo/gsv/37_-122/8_2/5_7/0_4/im_37.850236_-122.274782_60.000000_0.000000.jpg\x00http://imagenet.stanford.edu/internal/data/geo/gsv/37_-122/8_1/2_9/4_3/im_37.824830_-122.193683_60.000000_0.000000.jpg\x00http://imagenet.stanford.edu/internal/data/geo/gsv/37_-122/8_2/2_7/3_1/im_37.823931_-122.271936_60.000000_0.000000.jpg\x00http://imagenet.stanford.edu/internal/data/geo/gsv/37_-122/7_2/7_1/7_4/im_37.777166_-122.214456_60.000000_0.000000.jpg\x00http://imagenet.stanford.edu/internal/data/geo/gsv/37_-122/8_2/1_3/2_9/im_37.812240_-122.239212_60.000000_0.000000.jpg\x00http://imagenet.stanford.edu/internal/data/geo/gsv/37_-122/7_1/7_8/4_1/im_37.774918_-122.181447_60.000000_0.000000.jpg\x00http://imagenet.stanford.edu/internal/data/geo/gsv/37_-122/8_3/3_0/7_1/im_37.836971_-122.301814_60.000000_0.000000.jpg\x00http://imagenet.stanford.edu/internal/data/geo/gsv/37_-122/8_2/0_8/2_0/im_37.802572_-122.280188_60.000000_0.000000.jpg\x00http://imagenet.stanford.edu/internal/data/geo/gsv/37_-122/8_2/3_5/0_6/im_37.830451_-122.256001_60.000000_0.000000.jpg\x00http://imagenet.stanford.edu/internal/data/geo/gsv/37_-122/8_2/0_3/8_9/im_37.808418_-122.239497_60.000000_0.000000.jpg\x00http://imagenet.stanford.edu/internal/data/geo/gsv/37_-122/7_1/9_8/5_3/im_37.795602_-122.183723_60.000000_0.000000.jpg\x00http://imagenet.stanford.edu/internal/data/geo/gsv/37_-122/8_2/5_2/2_7/im_37.852709_-122.226976_60.000000_0.000000.jpg\x00http://imagenet.stanford.edu/internal/data/geo/gsv/37_-122/7_1/5_7/2_6/im_37.752435_-122.176610_60.000000_0.000000.jpg\x00http://imagenet.stanford.edu/internal/data/geo/gsv/37_-122/7_1/6_9/9_2/im_37.769747_-122.192829_60.000000_0.000000.jpg\x00http://imagenet.stanford.edu/internal/data/geo/gsv/37_-122/8_2/3_9/5_4/im_37.835173_-122.294700_60.000000_0.000000.jpg\x00http://imagenet.stanford.edu/internal/data/geo/gsv/37_-122/7_2/9_1/8_9/im_37.798076_-122.219008_60.000000_0.000000.jpg\x00http://imagenet.stanford.edu/internal/data/geo/gsv/37_-122/7_2/9_1/6_3/im_37.796727_-122.213886_60.000000_0.000000.jpg\x00http://imagenet.stanford.edu/internal/data/geo/gsv/37_-122/7_1/8_7/2_5/im_37.782338_-122.175187_60.000000_0.000000.jpg\x00http://imagenet.stanford.edu/internal/data/geo/gsv/37_-122/8_2/3_5/4_6/im_37.834723_-122.256285_60.000000_0.000000.jpg\x00http://imagenet.stanford.edu/internal/data/geo/gsv/37_-122/8_2/3_5/0_6/im_37.830676_-122.256285_60.000000_0.000000.jpg\x00http://imagenet.stanford.edu/internal/data/geo/gsv/37_-122/7_1/9_8/8_6/im_37.798525_-122.186000_60.000000_0.000000.jpg\x00http://imagenet.stanford.edu/internal/data/geo/gsv/37_-122/7_1/9_7/5_2/im_37.795827_-122.172057_60.000000_0.000000.jpg\x00http://imagenet.stanford.edu/internal/data/geo/gsv/37_-122/8_2/6_9/3_1/im_37.863501_-122.291570_60.000000_0.000000.jpg\x00http://imagenet.stanford.edu/internal/data/geo/gsv/37_-122/8_2/6_5/2_9/im_37.862152_-122.259700_60.000000_0.000000.jpg\x00http://imagenet.stanford.edu/internal/data/geo/gsv/37_-122/8_2/6_8/4_6/im_37.864401_-122.286448_60.000000_0.000000.jpg\x00http://imagenet.stanford.edu/internal/data/geo/gsv/37_-122/8_2/4_3/5_8/im_37.845290_-122.238927_60.000000_0.000000.jpg\x00http://imagenet.stanford.edu/internal/data/geo/gsv/37_-122/7_2/8_7/7_5/im_37.787059_-122.275066_60.000000_0.000000.jpg\x00http://imagenet.stanford.edu/internal/data/geo/gsv/37_-122/8_2/4_4/9_1/im_37.849562_-122.241488_60.000000_0.000000.jpg\x00http://imagenet.stanford.edu/internal/data/geo/gsv/37_-122/8_2/2_1/8_5/im_37.828877_-122.215309_60.000000_0.000000.jpg\x00http://imagenet.stanford.edu/internal/data/geo/gsv/37_-122/7_1/9_9/5_6/im_37.795153_-122.196813_60.000000_0.000000.jpg\x00http://imagenet.stanford.edu/internal/data/geo/gsv/37_-122/7_2/8_9/5_1/im_37.785710_-122.291286_60.000000_0.000000.jpg\x00http://imagenet.stanford.edu/internal/data/geo/gsv/37_-122/8_2/5_8/6_5/im_37.856756_-122.285879_60.000000_0.000000.jpg\x00http://imagenet.stanford.edu/internal/data/geo/gsv/37_-122/7_2/9_1/7_3/im_37.797851_-122.213317_60.000000_0.000000.jpg\x00http://imagenet.stanford.edu/internal/data/geo/gsv/37_-122/8_2/3_9/1_3/im_37.831351_-122.293562_60.000000_0.000000.jpg\x00http://imagenet.stanford.edu/internal/data/geo/gsv/37_-122/7_2/8_3/5_4/im_37.785260_-122.234659_60.000000_0.000000.jpg\x00http://imagenet.stanford.edu/internal/data/geo/gsv/37_-122/8_2/1_0/4_1/im_37.814938_-122.201651_60.000000_0.000000.jpg\x00http://imagenet.stanford.edu/internal/data/geo/gsv/37_-122/7_1/7_8/6_3/im_37.776267_-122.183723_60.000000_0.000000.jpg\x00http://imagenet.stanford.edu/internal/data/geo/gsv/37_-122/7_2/9_2/4_8/im_37.794928_-122.228114_60.000000_0.000000.jpg\x00http://imagenet.stanford.edu/internal/data/geo/gsv/37_-122/7_2/8_7/9_6/im_37.789307_-122.276773_60.000000_0.000000.jpg\x00http://imagenet.stanford.edu/internal/data/geo/gsv/37_-122/8_2/6_7/9_2/im_37.869122_-122.272505_60.000000_0.000000.jpg\x00http://imagenet.stanford.edu/internal/data/geo/gsv/37_-122/7_1/4_9/9_1/im_37.749063_-122.191406_60.000000_0.000000.jpg\x00http://imagenet.stanford.edu/internal/data/geo/gsv/37_-122/8_2/2_5/0_4/im_37.820783_-122.254578_60.000000_0.000000.jpg\x00http://imagenet.stanford.edu/internal/data/geo/gsv/37_-122/7_1/6_9/4_0/im_37.764126_-122.190837_60.000000_0.000000.jpg\x00http://imagenet.stanford.edu/internal/data/geo/gsv/37_-122/8_2/3_2/4_0/im_37.834723_-122.220716_60.000000_0.000000.jpg\x00http://imagenet.stanford.edu/internal/data/geo/gsv/37_-122/8_2/4_3/4_3/im_37.844840_-122.233521_60.000000_0.000000.jpg\x00http://imagenet.stanford.edu/internal/data/geo/gsv/37_-122/7_2/9_2/4_3/im_37.794478_-122.222992_60.000000_0.000000.jpg\x00http://imagenet.stanford.edu/internal/data/geo/gsv/37_-122/7_2/7_0/1_7/im_37.771321_-122.207342_60.000000_0.000000.jpg\x00http://imagenet.stanford.edu/internal/data/geo/gsv/37_-122/8_2/6_1/2_8/im_37.862602_-122.218155_60.000000_0.000000.jpg\x00http://imagenet.stanford.edu/internal/data/geo/gsv/37_-122/8_1/3_8/4_9/im_37.834948_-122.189130_60.000000_0.000000.jpg\x00http://imagenet.stanford.edu/internal/data/geo/gsv/37_-122/8_2/5_7/8_2/im_37.858780_-122.272505_60.000000_0.000000.jpg\x00http://imagenet.stanford.edu/internal/data/geo/gsv/37_-122/7_1/9_7/9_6/im_37.799874_-122.176040_60.000000_0.000000.jpg\x00http://imagenet.stanford.edu/internal/data/geo/gsv/37_-122/8_1/1_9/7_0/im_37.816961_-122.190553_60.000000_0.000000.jpg\x00http://imagenet.stanford.edu/internal/data/geo/gsv/37_-122/8_3/4_1/1_4/im_37.841018_-122.314050_60.000000_0.000000.jpg\x00http://imagenet.stanford.edu/internal/data/geo/gsv/37_-122/8_2/6_2/1_5/im_37.861703_-122.225269_60.000000_0.000000.jpg\x00http://imagenet.stanford.edu/internal/data/geo/gsv/37_-122/8_2/3_8/9_1/im_37.839669_-122.281611_60.000000_0.000000.jpg\x00http://imagenet.stanford.edu/internal/data/geo/gsv/37_-122/8_2/2_7/2_1/im_37.822357_-122.271936_60.000000_0.000000.jpg\x00http://imagenet.stanford.edu/internal/data/geo/gsv/37_-122/8_2/3_7/2_5/im_37.832700_-122.275635_60.000000_0.000000.jpg\x00http://imagenet.stanford.edu/internal/data/geo/gsv/37_-122/8_2/6_3/1_1/im_37.861478_-122.231244_60.000000_0.000000.jpg\x00http://imagenet.stanford.edu/internal/data/geo/gsv/37_-122/8_2/4_7/7_9/im_37.847313_-122.279334_60.000000_0.000000.jpg\x00http://imagenet.stanford.edu/internal/data/geo/gsv/37_-122/8_2/5_8/9_5/im_37.859904_-122.285026_60.000000_0.000000.jpg\x00http://imagenet.stanford.edu/internal/data/geo/gsv/37_-122/7_2/9_0/3_1/im_37.793129_-122.201935_60.000000_0.000000.jpg\x00http://imagenet.stanford.edu/internal/data/geo/gsv/37_-122/8_2/5_8/0_1/im_37.850461_-122.281895_60.000000_0.000000.jpg\x00http://imagenet.stanford.edu/internal/data/geo/gsv/37_-122/7_1/7_8/6_8/im_37.776042_-122.188276_60.000000_0.000000.jpg\x00http://imagenet.stanford.edu/internal/data/geo/gsv/37_-122/7_2/2_1/2_5/im_37.722308_-122.215025_60.000000_0.000000.jpg\x00http://imagenet.stanford.edu/internal/data/geo/gsv/37_-122/8_2/5_1/3_3/im_37.853609_-122.213886_60.000000_0.000000.jpg\x00http://imagenet.stanford.edu/internal/data/geo/gsv/37_-122/8_2/2_5/0_6/im_37.820783_-122.256285_60.000000_0.000000.jpg\x00http://imagenet.stanford.edu/internal/data/geo/gsv/37_-122/8_2/1_5/9_7/im_37.819435_-122.257708_60.000000_0.000000.jpg\x00http://imagenet.stanford.edu/internal/data/geo/gsv/37_-122/8_2/3_7/6_9/im_37.836746_-122.279050_60.000000_0.000000.jpg\x00http://imagenet.stanford.edu/internal/data/geo/gsv/37_-122/8_1/2_9/5_3/im_37.825055_-122.193398_60.000000_0.000000.jpg\x00http://imagenet.stanford.edu/internal/data/geo/gsv/37_-122/8_2/4_9/5_8/im_37.845290_-122.298400_60.000000_0.000000.jpg\x00http://imagenet.stanford.edu/internal/data/geo/gsv/37_-122/8_2/4_1/6_3/im_37.846189_-122.213886_60.000000_0.000000.jpg\x00http://imagenet.stanford.edu/internal/data/geo/gsv/37_-122/7_2/9_6/9_8/im_37.799200_-122.268806_60.000000_0.000000.jpg\x00http://imagenet.stanford.edu/internal/data/geo/gsv/37_-122/7_2/7_0/1_8/im_37.771770_-122.208764_60.000000_0.000000.jpg\x00http://imagenet.stanford.edu/internal/data/geo/gsv/37_-122/8_2/2_5/4_8/im_37.824606_-122.258846_60.000000_0.000000.jpg\x00http://imagenet.stanford.edu/internal/data/geo/gsv/37_-122/8_2/1_4/8_4/im_37.818310_-122.244334_60.000000_0.000000.jpg\x00http://imagenet.stanford.edu/internal/data/geo/gsv/37_-122/8_2/2_6/5_8/im_37.825055_-122.268237_60.000000_0.000000.jpg\x00http://imagenet.stanford.edu/internal/data/geo/gsv/37_-122/8_2/2_0/8_9/im_37.827978_-122.209618_60.000000_0.000000.jpg\x00http://imagenet.stanford.edu/internal/data/geo/gsv/37_-122/8_2/3_1/2_9/im_37.832475_-122.219008_60.000000_0.000000.jpg\x00http://imagenet.stanford.edu/internal/data/geo/gsv/37_-122/8_2/5_7/7_7/im_37.857656_-122.277627_60.000000_0.000000.jpg\x00http://imagenet.stanford.edu/internal/data/geo/gsv/37_-122/7_1/5_9/9_4/im_37.759405_-122.194821_60.000000_0.000000.jpg\x00http://imagenet.stanford.edu/internal/data/geo/gsv/37_-122/8_2/4_7/1_2/im_37.841468_-122.272221_60.000000_0.000000.jpg\x00http://imagenet.stanford.edu/internal/data/geo/gsv/37_-122/8_2/4_8/2_5/im_37.842817_-122.285595_60.000000_0.000000.jpg\x00http://imagenet.stanford.edu/internal/data/geo/gsv/37_-122/7_2/3_0/1_7/im_37.731301_-122.207626_60.000000_0.000000.jpg\x00http://imagenet.stanford.edu/internal/data/geo/gsv/37_-122/8_2/5_4/9_0/im_37.859229_-122.240635_60.000000_0.000000.jpg\x00http://imagenet.stanford.edu/internal/data/geo/gsv/37_-122/7_2/8_1/4_3/im_37.784136_-122.213033_60.000000_0.000000.jpg\x00http://imagenet.stanford.edu/internal/data/geo/gsv/37_-122/8_2/0_4/6_0/im_37.806394_-122.240066_60.000000_0.000000.jpg\x00http://imagenet.stanford.edu/internal/data/geo/gsv/37_-122/8_2/0_0/6_3/im_37.806170_-122.203073_60.000000_0.000000.jpg\x00http://imagenet.stanford.edu/internal/data/geo/gsv/37_-122/8_2/0_2/8_1/im_37.808867_-122.221285_60.000000_0.000000.jpg\x00http://imagenet.stanford.edu/internal/data/geo/gsv/37_-122/7_1/5_8/8_4/im_37.758505_-122.184577_60.000000_0.000000.jpg\x00http://imagenet.stanford.edu/internal/data/geo/gsv/37_-122/8_2/1_2/6_3/im_37.816062_-122.223846_60.000000_0.000000.jpg\x00http://imagenet.stanford.edu/internal/data/geo/gsv/37_-122/7_1/9_9/2_7/im_37.792005_-122.197098_60.000000_0.000000.jpg\x00http://imagenet.stanford.edu/internal/data/geo/gsv/37_-122/8_1/0_9/1_2/im_37.801448_-122.192829_60.000000_0.000000.jpg\x00http://imagenet.stanford.edu/internal/data/geo/gsv/37_-122/7_2/9_7/4_5/im_37.794928_-122.275635_60.000000_0.000000.jpg\x00http://imagenet.stanford.edu/internal/data/geo/gsv/37_-122/7_1/5_6/6_8/im_37.756482_-122.168927_60.000000_0.000000.jpg\x00http://imagenet.stanford.edu/internal/data/geo/gsv/37_-122/7_1/4_8/9_4/im_37.749063_-122.184008_60.000000_0.000000.jpg\x00http://imagenet.stanford.edu/internal/data/geo/gsv/37_-122/8_1/0_9/4_9/im_37.804371_-122.199374_60.000000_0.000000.jpg\x00http://imagenet.stanford.edu/internal/data/geo/gsv/37_-122/8_2/0_5/5_0/im_37.805045_-122.250025_60.000000_0.000000.jpg\x00http://imagenet.stanford.edu/internal/data/geo/gsv/37_-122/8_2/2_5/3_5/im_37.823032_-122.255432_60.000000_0.000000.jpg\x00http://imagenet.stanford.edu/internal/data/geo/gsv/37_-122/7_2/8_0/7_7/im_37.787284_-122.207057_60.000000_0.000000.jpg\x00http://imagenet.stanford.edu/internal/data/geo/gsv/37_-122/8_1/1_9/7_1/im_37.817636_-122.191691_60.000000_0.000000.jpg\x00http://imagenet.stanford.edu/internal/data/geo/gsv/37_-122/8_2/5_7/4_2/im_37.854508_-122.272221_60.000000_0.000000.jpg\x00http://imagenet.stanford.edu/internal/data/geo/gsv/37_-122/8_2/6_4/7_6/im_37.867773_-122.246326_60.000000_0.000000.jpg\x00http://imagenet.stanford.edu/internal/data/geo/gsv/37_-122/8_2/3_7/4_9/im_37.834948_-122.279334_60.000000_0.000000.jpg\x00http://imagenet.stanford.edu/internal/data/geo/gsv/37_-122/8_2/0_2/1_0/im_37.801448_-122.220716_60.000000_0.000000.jpg\x00http://imagenet.stanford.edu/internal/data/geo/gsv/37_-122/7_2/8_0/0_6/im_37.780314_-122.206203_60.000000_0.000000.jpg\x00http://imagenet.stanford.edu/internal/data/geo/gsv/37_-122/7_1/3_8/1_8/im_37.731526_-122.187992_60.000000_0.000000.jpg\x00http://imagenet.stanford.edu/internal/data/geo/gsv/37_-122/8_2/4_8/7_2/im_37.847313_-122.282180_60.000000_0.000000.jpg\x00http://imagenet.stanford.edu/internal/data/geo/gsv/37_-122/8_2/5_8/1_9/im_37.851136_-122.289294_60.000000_0.000000.jpg\x00http://imagenet.stanford.edu/internal/data/geo/gsv/37_-122/8_2/7_7/5_1/im_37.875192_-122.271936_60.000000_0.000000.jpg\x00http://imagenet.stanford.edu/internal/data/geo/gsv/37_-122/7_1/8_9/9_9/im_37.789307_-122.199374_60.000000_0.000000.jpg\x00http://imagenet.stanford.edu/internal/data/geo/gsv/37_-122/8_2/0_4/3_2/im_37.803472_-122.242342_60.000000_0.000000.jpg\x00http://imagenet.stanford.edu/internal/data/geo/gsv/37_-122/8_1/0_9/9_0/im_37.809767_-122.190268_60.000000_0.000000.jpg\x00http://imagenet.stanford.edu/internal/data/geo/gsv/37_-122/8_2/4_1/7_4/im_37.847313_-122.214456_60.000000_0.000000.jpg\x00http://imagenet.stanford.edu/internal/data/geo/gsv/37_-122/7_1/4_7/6_4/im_37.746365_-122.174049_60.000000_0.000000.jpg\x00http://imagenet.stanford.edu/internal/data/geo/gsv/37_-122/8_2/1_7/1_7/im_37.811790_-122.277912_60.000000_0.000000.jpg\x00http://imagenet.stanford.edu/internal/data/geo/gsv/37_-122/8_2/4_7/2_1/im_37.842592_-122.271082_60.000000_0.000000.jpg\x00http://imagenet.stanford.edu/internal/data/geo/gsv/37_-122/8_2/1_1/5_6/im_37.815612_-122.216732_60.000000_0.000000.jpg\x00http://imagenet.stanford.edu/internal/data/geo/gsv/37_-122/8_2/1_6/8_7/im_37.818086_-122.267098_60.000000_0.000000.jpg\x00http://imagenet.stanford.edu/internal/data/geo/gsv/37_-122/8_2/3_7/9_5/im_37.838995_-122.275351_60.000000_0.000000.jpg\x00http://imagenet.stanford.edu/internal/data/geo/gsv/37_-122/7_2/9_6/4_5/im_37.794029_-122.265391_60.000000_0.000000.jpg\x00http://imagenet.stanford.edu/internal/data/geo/gsv/37_-122/7_1/9_9/5_7/im_37.795827_-122.197098_60.000000_0.000000.jpg\x00http://imagenet.stanford.edu/internal/data/geo/gsv/37_-122/8_2/0_5/8_6/im_37.808867_-122.256285_60.000000_0.000000.jpg\x00http://imagenet.stanford.edu/internal/data/geo/gsv/37_-122/8_2/4_3/9_4/im_37.849787_-122.234659_60.000000_0.000000.jpg\x00http://imagenet.stanford.edu/internal/data/geo/gsv/37_-122/7_1/6_7/5_5/im_37.765475_-122.175756_60.000000_0.000000.jpg\x00http://imagenet.stanford.edu/internal/data/geo/gsv/37_-122/8_2/0_3/8_7/im_37.808418_-122.237220_60.000000_0.000000.jpg\x00http://imagenet.stanford.edu/internal/data/geo/gsv/37_-122/7_1/2_7/0_8/im_37.720734_-122.178317_60.000000_0.000000.jpg\x00http://imagenet.stanford.edu/internal/data/geo/gsv/37_-122/8_2/2_1/5_4/im_37.825280_-122.214456_60.000000_0.000000.jpg\x00http://imagenet.stanford.edu/internal/data/geo/gsv/37_-122/8_2/0_5/9_5/im_37.809767_-122.255432_60.000000_0.000000.jpg\x00http://imagenet.stanford.edu/internal/data/geo/gsv/37_-122/8_2/7_7/2_9/im_37.872944_-122.279904_60.000000_0.000000.jpg\x00http://imagenet.stanford.edu/internal/data/geo/gsv/37_-122/8_2/5_2/3_2/im_37.853384_-122.222423_60.000000_0.000000.jpg\x00http://imagenet.stanford.edu/internal/data/geo/gsv/37_-122/8_2/1_6/5_2/im_37.815612_-122.262830_60.000000_0.000000.jpg\x00http://imagenet.stanford.edu/internal/data/geo/gsv/37_-122/8_2/0_6/4_9/im_37.804146_-122.269660_60.000000_0.000000.jpg\x00http://imagenet.stanford.edu/internal/data/geo/gsv/37_-122/7_2/9_3/9_1/im_37.799649_-122.231244_60.000000_0.000000.jpg\x00http://imagenet.stanford.edu/internal/data/geo/gsv/37_-122/8_2/1_3/7_8/im_37.816961_-122.238643_60.000000_0.000000.jpg\x00http://imagenet.stanford.edu/internal/data/geo/gsv/37_-122/7_2/8_7/4_6/im_37.784586_-122.276489_60.000000_0.000000.jpg\x00http://imagenet.stanford.edu/internal/data/geo/gsv/37_-122/8_2/1_6/6_6/im_37.816062_-122.266529_60.000000_0.000000.jpg\x00http://imagenet.stanford.edu/internal/data/geo/gsv/37_-122/7_2/9_1/5_5/im_37.795602_-122.215309_60.000000_0.000000.jpg\x00http://imagenet.stanford.edu/internal/data/geo/gsv/37_-122/7_2/9_0/1_1/im_37.791106_-122.201081_60.000000_0.000000.jpg\x00http://imagenet.stanford.edu/internal/data/geo/gsv/37_-122/7_2/9_2/6_8/im_37.796277_-122.228399_60.000000_0.000000.jpg\x00http://imagenet.stanford.edu/internal/data/geo/gsv/37_-122/7_2/7_2/3_6/im_37.773794_-122.226691_60.000000_0.000000.jpg\x00http://imagenet.stanford.edu/internal/data/geo/gsv/37_-122/8_2/3_9/8_5/im_37.838095_-122.295839_60.000000_0.000000.jpg\x00http://imagenet.stanford.edu/internal/data/geo/gsv/37_-122/7_2/8_9/5_1/im_37.785485_-122.291286_60.000000_0.000000.jpg\x00http://imagenet.stanford.edu/internal/data/geo/gsv/37_-122/7_1/7_8/3_8/im_37.773119_-122.188276_60.000000_0.000000.jpg\x00http://imagenet.stanford.edu/internal/data/geo/gsv/37_-122/7_1/5_7/4_1/im_37.754908_-122.171488_60.000000_0.000000.jpg\x00http://imagenet.stanford.edu/internal/data/geo/gsv/37_-122/8_2/3_8/7_8/im_37.837646_-122.288440_60.000000_0.000000.jpg\x00http://imagenet.stanford.edu/internal/data/geo/gsv/37_-122/8_2/2_5/4_0/im_37.824381_-122.250025_60.000000_0.000000.jpg\x00http://imagenet.stanford.edu/internal/data/geo/gsv/37_-122/8_2/1_2/7_3/im_37.817861_-122.223846_60.000000_0.000000.jpg\x00http://imagenet.stanford.edu/internal/data/geo/gsv/37_-122/8_2/2_5/7_4/im_37.827753_-122.254293_60.000000_0.000000.jpg\x00http://imagenet.stanford.edu/internal/data/geo/gsv/37_-122/8_2/2_5/8_8/im_37.828203_-122.258562_60.000000_0.000000.jpg\x00http://imagenet.stanford.edu/internal/data/geo/gsv/37_-122/8_2/2_5/6_2/im_37.826404_-122.252302_60.000000_0.000000.jpg\x00http://imagenet.stanford.edu/internal/data/geo/gsv/37_-122/8_2/6_7/3_1/im_37.863501_-122.271367_60.000000_0.000000.jpg\x00http://imagenet.stanford.edu/internal/data/geo/gsv/37_-122/8_2/3_1/4_8/im_37.834723_-122.218724_60.000000_0.000000.jpg\x00http://imagenet.stanford.edu/internal/data/geo/gsv/37_-122/7_1/3_8/0_8/im_37.730402_-122.188845_60.000000_0.000000.jpg\x00http://imagenet.stanford.edu/internal/data/geo/gsv/37_-122/8_2/2_0/5_4/im_37.825730_-122.204781_60.000000_0.000000.jpg\x00http://imagenet.stanford.edu/internal/data/geo/gsv/37_-122/8_2/1_3/7_6/im_37.816961_-122.236366_60.000000_0.000000.jpg\x00http://imagenet.stanford.edu/internal/data/geo/gsv/37_-122/7_2/7_0/3_2/im_37.773569_-122.202504_60.000000_0.000000.jpg\x00http://imagenet.stanford.edu/internal/data/geo/gsv/37_-122/8_2/5_4/0_9/im_37.850911_-122.249171_60.000000_0.000000.jpg\x00http://imagenet.stanford.edu/internal/data/geo/gsv/37_-122/8_2/5_8/4_6/im_37.854283_-122.286448_60.000000_0.000000.jpg\x00http://imagenet.stanford.edu/internal/data/geo/gsv/37_-122/8_2/6_7/9_2/im_37.869797_-122.272790_60.000000_0.000000.jpg\x00http://imagenet.stanford.edu/internal/data/geo/gsv/37_-122/8_2/7_2/1_3/im_37.871146_-122.223846_60.000000_0.000000.jpg\x00http://imagenet.stanford.edu/internal/data/geo/gsv/37_-122/8_2/0_4/7_4/im_37.807294_-122.244334_60.000000_0.000000.jpg\x00http://imagenet.stanford.edu/internal/data/geo/gsv/37_-122/8_2/0_1/3_0/im_37.803247_-122.210756_60.000000_0.000000.jpg\x00http://imagenet.stanford.edu/internal/data/geo/gsv/37_-122/8_2/5_8/2_1/im_37.852035_-122.281042_60.000000_0.000000.jpg\x00http://imagenet.stanford.edu/internal/data/geo/gsv/37_-122/8_2/4_4/3_4/im_37.843042_-122.244049_60.000000_0.000000.jpg\x00http://imagenet.stanford.edu/internal/data/geo/gsv/37_-122/7_1/7_9/1_7/im_37.771321_-122.197098_60.000000_0.000000.jpg\x00http://imagenet.stanford.edu/internal/data/geo/gsv/37_-122/8_2/2_6/3_7/im_37.823706_-122.267098_60.000000_0.000000.jpg\x00http://imagenet.stanford.edu/internal/data/geo/gsv/37_-122/7_1/5_6/6_3/im_37.756032_-122.163520_60.000000_0.000000.jpg\x00http://imagenet.stanford.edu/internal/data/geo/gsv/37_-122/8_2/5_7/4_5/im_37.854508_-122.275920_60.000000_0.000000.jpg\x00http://imagenet.stanford.edu/internal/data/geo/gsv/37_-122/8_2/5_8/7_3/im_37.857431_-122.283034_60.000000_0.000000.jpg\x00http://imagenet.stanford.edu/internal/data/geo/gsv/37_-122/8_2/4_6/0_7/im_37.840119_-122.267383_60.000000_0.000000.jpg\x00http://imagenet.stanford.edu/internal/data/geo/gsv/37_-122/8_1/2_9/6_8/im_37.826404_-122.198805_60.000000_0.000000.jpg\x00http://imagenet.stanford.edu/internal/data/geo/gsv/37_-122/8_2/6_8/1_9/im_37.861028_-122.289863_60.000000_0.000000.jpg\x00http://imagenet.stanford.edu/internal/data/geo/gsv/37_-122/8_2/0_4/6_0/im_37.806844_-122.240635_60.000000_0.000000.jpg\x00http://imagenet.stanford.edu/internal/data/geo/gsv/37_-122/8_2/4_1/1_7/im_37.841693_-122.217870_60.000000_0.000000.jpg\x00http://imagenet.stanford.edu/internal/data/geo/gsv/37_-122/7_1/5_9/6_3/im_37.756707_-122.193398_60.000000_0.000000.jpg\x00http://imagenet.stanford.edu/internal/data/geo/gsv/37_-122/8_2/1_4/2_3/im_37.812690_-122.243765_60.000000_0.000000.jpg\x00http://imagenet.stanford.edu/internal/data/geo/gsv/37_-122/8_2/5_6/3_0/im_37.853834_-122.259985_60.000000_0.000000.jpg\x00http://imagenet.stanford.edu/internal/data/geo/gsv/37_-122/8_1/0_8/9_9/im_37.809542_-122.189699_60.000000_0.000000.jpg\x00http://imagenet.stanford.edu/internal/data/geo/gsv/37_-122/8_2/4_0/2_9/im_37.842367_-122.209903_60.000000_0.000000.jpg\x00http://imagenet.stanford.edu/internal/data/geo/gsv/37_-122/8_2/0_3/2_1/im_37.802797_-122.231813_60.000000_0.000000.jpg\x00http://imagenet.stanford.edu/internal/data/geo/gsv/37_-122/8_2/3_9/4_1/im_37.834723_-122.291570_60.000000_0.000000.jpg\x00http://imagenet.stanford.edu/internal/data/geo/gsv/37_-122/8_2/1_4/4_6/im_37.814938_-122.246041_60.000000_0.000000.jpg\x00http://imagenet.stanford.edu/internal/data/geo/gsv/37_-122/8_2/2_9/9_2/im_37.829552_-122.292424_60.000000_0.000000.jpg\x00http://imagenet.stanford.edu/internal/data/geo/gsv/37_-122/8_1/3_9/0_9/im_37.830226_-122.199659_60.000000_0.000000.jpg\x00http://imagenet.stanford.edu/internal/data/geo/gsv/37_-122/8_2/6_8/5_1/im_37.865525_-122.281611_60.000000_0.000000.jpg\x00http://imagenet.stanford.edu/internal/data/geo/gsv/37_-122/7_1/2_8/7_1/im_37.727929_-122.181162_60.000000_0.000000.jpg\x00http://imagenet.stanford.edu/internal/data/geo/gsv/37_-122/7_1/8_8/4_1/im_37.784811_-122.181447_60.000000_0.000000.jpg\x00http://imagenet.stanford.edu/internal/data/geo/gsv/37_-122/8_2/0_8/1_2/im_37.801223_-122.282180_60.000000_0.000000.jpg\x00http://imagenet.stanford.edu/internal/data/geo/gsv/37_-122/7_2/8_1/5_1/im_37.785485_-122.211325_60.000000_0.000000.jpg\x00http://imagenet.stanford.edu/internal/data/geo/gsv/37_-122/7_1/1_7/4_2/im_37.714888_-122.172626_60.000000_0.000000.jpg\x00http://imagenet.stanford.edu/internal/data/geo/gsv/37_-122/7_1/5_8/9_7/im_37.758955_-122.187138_60.000000_0.000000.jpg\x00http://imagenet.stanford.edu/internal/data/geo/gsv/37_-122/8_2/6_4/9_0/im_37.869122_-122.240919_60.000000_0.000000.jpg\x00http://imagenet.stanford.edu/internal/data/geo/gsv/37_-122/8_2/2_7/5_1/im_37.825280_-122.271651_60.000000_0.000000.jpg\x00http://imagenet.stanford.edu/internal/data/geo/gsv/37_-122/8_2/4_7/6_1/im_37.845965_-122.271651_60.000000_0.000000.jpg\x00http://imagenet.stanford.edu/internal/data/geo/gsv/37_-122/7_2/3_1/2_3/im_37.732875_-122.213886_60.000000_0.000000.jpg\x00http://imagenet.stanford.edu/internal/data/geo/gsv/37_-122/7_1/1_8/6_7/im_37.716462_-122.187138_60.000000_0.000000.jpg\x00http://imagenet.stanford.edu/internal/data/geo/gsv/37_-122/8_2/2_8/5_1/im_37.825730_-122.281042_60.000000_0.000000.jpg\x00http://imagenet.stanford.edu/internal/data/geo/gsv/37_-122/8_2/7_9/5_2/im_37.875417_-122.292139_60.000000_0.000000.jpg\x00http://imagenet.stanford.edu/internal/data/geo/gsv/37_-122/7_2/9_2/1_8/im_37.791780_-122.228399_60.000000_0.000000.jpg\x00http://imagenet.stanford.edu/internal/data/geo/gsv/37_-122/8_2/4_3/9_6/im_37.849787_-122.236082_60.000000_0.000000.jpg\x00http://imagenet.stanford.edu/internal/data/geo/gsv/37_-122/7_2/7_8/8_0/im_37.778740_-122.280473_60.000000_0.000000.jpg\x00http://imagenet.stanford.edu/internal/data/geo/gsv/37_-122/7_1/6_6/1_4/im_37.761203_-122.164658_60.000000_0.000000.jpg\x00http://imagenet.stanford.edu/internal/data/geo/gsv/37_-122/7_1/8_9/5_3/im_37.785485_-122.193114_60.000000_0.000000.jpg\x00http://imagenet.stanford.edu/internal/data/geo/gsv/37_-122/7_1/8_9/7_8/im_37.787059_-122.198805_60.000000_0.000000.jpg\x00http://imagenet.stanford.edu/internal/data/geo/gsv/37_-122/8_2/5_2/4_3/im_37.854508_-122.223277_60.000000_0.000000.jpg\x00http://imagenet.stanford.edu/internal/data/geo/gsv/37_-122/8_2/6_6/1_4/im_37.861703_-122.264253_60.000000_0.000000.jpg\x00http://imagenet.stanford.edu/internal/data/geo/gsv/37_-122/8_2/2_7/6_7/im_37.826404_-122.277912_60.000000_0.000000.jpg\x00http://imagenet.stanford.edu/internal/data/geo/gsv/37_-122/8_3/3_0/9_3/im_37.839220_-122.303806_60.000000_0.000000.jpg\x00http://imagenet.stanford.edu/internal/data/geo/gsv/37_-122/7_2/6_2/8_0/im_37.768173_-122.220716_60.000000_0.000000.jpg\x00http://imagenet.stanford.edu/internal/data/geo/gsv/37_-122/8_2/6_2/2_3/im_37.862602_-122.223561_60.000000_0.000000.jpg\x00http://imagenet.stanford.edu/internal/data/geo/gsv/37_-122/8_1/2_9/0_7/im_37.820109_-122.197382_60.000000_0.000000.jpg\x00http://imagenet.stanford.edu/internal/data/geo/gsv/37_-122/8_1/0_9/0_3/im_37.800099_-122.193683_60.000000_0.000000.jpg\x00http://imagenet.stanford.edu/internal/data/geo/gsv/37_-122/8_2/0_2/3_7/im_37.803247_-122.227261_60.000000_0.000000.jpg\x00http://imagenet.stanford.edu/internal/data/geo/gsv/37_-122/8_2/2_5/7_5/im_37.827079_-122.255432_60.000000_0.000000.jpg\x00http://imagenet.stanford.edu/internal/data/geo/gsv/37_-122/7_2/7_8/6_4/im_37.776042_-122.284172_60.000000_0.000000.jpg\x00http://imagenet.stanford.edu/internal/data/geo/gsv/37_-122/8_2/0_6/7_9/im_37.807294_-122.269660_60.000000_0.000000.jpg\x00http://imagenet.stanford.edu/internal/data/geo/gsv/37_-122/8_2/7_7/7_8/im_37.877216_-122.278196_60.000000_0.000000.jpg\x00http://imagenet.stanford.edu/internal/data/geo/gsv/37_-122/8_1/3_9/6_9/im_37.836522_-122.199090_60.000000_0.000000.jpg\x00http://imagenet.stanford.edu/internal/data/geo/gsv/37_-122/7_1/5_9/2_5/im_37.752210_-122.195390_60.000000_0.000000.jpg\x00http://imagenet.stanford.edu/internal/data/geo/gsv/37_-122/7_1/6_8/6_7/im_37.766599_-122.187707_60.000000_0.000000.jpg\x00http://imagenet.stanford.edu/internal/data/geo/gsv/37_-122/8_2/2_6/6_3/im_37.826854_-122.263684_60.000000_0.000000.jpg\x00http://imagenet.stanford.edu/internal/data/geo/gsv/37_-122/7_1/5_9/4_4/im_37.754908_-122.194537_60.000000_0.000000.jpg\x00http://imagenet.stanford.edu/internal/data/geo/gsv/37_-122/8_2/4_1/1_9/im_37.841018_-122.219008_60.000000_0.000000.jpg\x00http://imagenet.stanford.edu/internal/data/geo/gsv/37_-122/8_2/3_7/3_9/im_37.833599_-122.279334_60.000000_0.000000.jpg\x00http://imagenet.stanford.edu/internal/data/geo/gsv/37_-122/7_2/9_1/2_7/im_37.792005_-122.217586_60.000000_0.000000.jpg\x00http://imagenet.stanford.edu/internal/data/geo/gsv/37_-122/8_2/5_8/6_9/im_37.856082_-122.289294_60.000000_0.000000.jpg\x00http://imagenet.stanford.edu/internal/data/geo/gsv/37_-122/7_2/8_8/0_3/im_37.780539_-122.283034_60.000000_0.000000.jpg\x00http://imagenet.stanford.edu/internal/data/geo/gsv/37_-122/8_2/3_4/1_6/im_37.831126_-122.246326_60.000000_0.000000.jpg\x00http://imagenet.stanford.edu/internal/data/geo/gsv/37_-122/7_2/3_1/6_3/im_37.736247_-122.213602_60.000000_0.000000.jpg\x00http://imagenet.stanford.edu/internal/data/geo/gsv/37_-122/7_2/7_1/5_4/im_37.775593_-122.214456_60.000000_0.000000.jpg\x00http://imagenet.stanford.edu/internal/data/geo/gsv/37_-122/7_1/1_9/5_0/im_37.715338_-122.189984_60.000000_0.000000.jpg\x00http://imagenet.stanford.edu/internal/data/geo/gsv/37_-122/8_2/4_3/4_6/im_37.844616_-122.236936_60.000000_0.000000.jpg\x00http://imagenet.stanford.edu/internal/data/geo/gsv/37_-122/7_1/2_9/7_9/im_37.727029_-122.199943_60.000000_0.000000.jpg\x00http://imagenet.stanford.edu/internal/data/geo/gsv/37_-122/7_1/9_9/5_1/im_37.795378_-122.191122_60.000000_0.000000.jpg\x00http://imagenet.stanford.edu/internal/data/geo/gsv/37_-122/7_1/8_8/4_9/im_37.784811_-122.189415_60.000000_0.000000.jpg\x00http://imagenet.stanford.edu/internal/data/geo/gsv/37_-122/7_1/9_9/3_5/im_37.793804_-122.195390_60.000000_0.000000.jpg\x00http://imagenet.stanford.edu/internal/data/geo/gsv/37_-122/8_2/2_7/8_4/im_37.827978_-122.274497_60.000000_0.000000.jpg\x00http://imagenet.stanford.edu/internal/data/geo/gsv/37_-122/8_2/3_6/7_0/im_37.837421_-122.260838_60.000000_0.000000.jpg\x00http://imagenet.stanford.edu/internal/data/geo/gsv/37_-122/7_1/1_7/9_6/im_37.719610_-122.176040_60.000000_0.000000.jpg\x00http://imagenet.stanford.edu/internal/data/geo/gsv/37_-122/7_2/7_1/8_5/im_37.778291_-122.215878_60.000000_0.000000.jpg\x00http://imagenet.stanford.edu/internal/data/geo/gsv/37_-122/8_2/0_1/3_1/im_37.803247_-122.211895_60.000000_0.000000.jpg\x00http://imagenet.stanford.edu/internal/data/geo/gsv/37_-122/7_2/8_2/6_7/im_37.786834_-122.226976_60.000000_0.000000.jpg\x00http://imagenet.stanford.edu/internal/data/geo/gsv/37_-122/8_2/3_0/3_5/im_37.833824_-122.205919_60.000000_0.000000.jpg\x00http://imagenet.stanford.edu/internal/data/geo/gsv/37_-122/7_2/3_1/3_2/im_37.733324_-122.212748_60.000000_0.000000.jpg\x00http://imagenet.stanford.edu/internal/data/geo/gsv/37_-122/8_2/2_1/4_3/im_37.824156_-122.213602_60.000000_0.000000.jpg\x00http://imagenet.stanford.edu/internal/data/geo/gsv/37_-122/8_2/3_2/9_3/im_37.838995_-122.222992_60.000000_0.000000.jpg\x00http://imagenet.stanford.edu/internal/data/geo/gsv/37_-122/7_2/8_2/7_7/im_37.787509_-122.227830_60.000000_0.000000.jpg\x00http://imagenet.stanford.edu/internal/data/geo/gsv/37_-122/8_1/2_9/0_5/im_37.820109_-122.195675_60.000000_0.000000.jpg\x00http://imagenet.stanford.edu/internal/data/geo/gsv/37_-122/8_2/6_6/7_6/im_37.867548_-122.265960_60.000000_0.000000.jpg\x00http://imagenet.stanford.edu/internal/data/geo/gsv/37_-122/8_2/4_0/8_4/im_37.848887_-122.204496_60.000000_0.000000.jpg\x00http://imagenet.stanford.edu/internal/data/geo/gsv/37_-122/7_2/8_0/6_9/im_37.786609_-122.209618_60.000000_0.000000.jpg\x00http://imagenet.stanford.edu/internal/data/geo/gsv/37_-122/7_1/7_9/9_8/im_37.778965_-122.198805_60.000000_0.000000.jpg\x00http://imagenet.stanford.edu/internal/data/geo/gsv/37_-122/8_2/6_6/5_2/im_37.865525_-122.261976_60.000000_0.000000.jpg\x00http://imagenet.stanford.edu/internal/data/geo/gsv/37_-122/7_2/9_6/4_7/im_37.794478_-122.267668_60.000000_0.000000.jpg\x00http://imagenet.stanford.edu/internal/data/geo/gsv/37_-122/7_2/8_7/3_8/im_37.783686_-122.278196_60.000000_0.000000.jpg\x00http://imagenet.stanford.edu/internal/data/geo/gsv/37_-122/8_2/4_7/5_6/im_37.845740_-122.276489_60.000000_0.000000.jpg\x00http://imagenet.stanford.edu/internal/data/geo/gsv/37_-122/7_1/8_9/9_6/im_37.789532_-122.195959_60.000000_0.000000.jpg\x00http://imagenet.stanford.edu/internal/data/geo/gsv/37_-122/8_2/4_4/6_7/im_37.846414_-122.247749_60.000000_0.000000.jpg\x00http://imagenet.stanford.edu/internal/data/geo/gsv/37_-122/8_2/1_3/5_1/im_37.815612_-122.230960_60.000000_0.000000.jpg\x00http://imagenet.stanford.edu/internal/data/geo/gsv/37_-122/8_2/2_8/1_7/im_37.821908_-122.287587_60.000000_0.000000.jpg\x00http://imagenet.stanford.edu/internal/data/geo/gsv/37_-122/8_1/2_9/3_2/im_37.823706_-122.192829_60.000000_0.000000.jpg\x00http://imagenet.stanford.edu/internal/data/geo/gsv/37_-122/7_2/6_0/4_0/im_37.764351_-122.200797_60.000000_0.000000.jpg\x00http://imagenet.stanford.edu/internal/data/geo/gsv/37_-122/7_1/5_8/9_3/im_37.759854_-122.183439_60.000000_0.000000.jpg\x00http://imagenet.stanford.edu/internal/data/geo/gsv/37_-122/7_1/4_7/8_8/im_37.748838_-122.178601_60.000000_0.000000.jpg\x00http://imagenet.stanford.edu/internal/data/geo/gsv/37_-122/7_1/7_7/6_1/im_37.776492_-122.171772_60.000000_0.000000.jpg\x00http://imagenet.stanford.edu/internal/data/geo/gsv/37_-122/7_1/9_9/8_4/im_37.798300_-122.194537_60.000000_0.000000.jpg\x00http://imagenet.stanford.edu/internal/data/geo/gsv/37_-122/7_1/9_5/2_8/im_37.792905_-122.158113_60.000000_0.000000.jpg\x00http://imagenet.stanford.edu/internal/data/geo/gsv/37_-122/8_2/1_2/6_1/im_37.816512_-122.221854_60.000000_0.000000.jpg\x00http://imagenet.stanford.edu/internal/data/geo/gsv/37_-122/8_2/0_6/7_4/im_37.807294_-122.264822_60.000000_0.000000.jpg\x00http://imagenet.stanford.edu/internal/data/geo/gsv/37_-122/8_2/3_1/1_5/im_37.831800_-122.215025_60.000000_0.000000.jpg\x00http://imagenet.stanford.edu/internal/data/geo/gsv/37_-122/8_2/0_7/8_4/im_37.808643_-122.274212_60.000000_0.000000.jpg\x00http://imagenet.stanford.edu/internal/data/geo/gsv/37_-122/8_2/2_7/0_6/im_37.820109_-122.276204_60.000000_0.000000.jpg\x00http://imagenet.stanford.edu/internal/data/geo/gsv/37_-122/7_1/8_6/7_8/im_37.787509_-122.168357_60.000000_0.000000.jpg\x00http://imagenet.stanford.edu/internal/data/geo/gsv/37_-122/8_2/4_2/9_6/im_37.849112_-122.226122_60.000000_0.000000.jpg\x00http://imagenet.stanford.edu/internal/data/geo/gsv/37_-122/7_1/3_9/2_2/im_37.732200_-122.192260_60.000000_0.000000.jpg\x00http://imagenet.stanford.edu/internal/data/geo/gsv/37_-122/8_1/0_9/4_8/im_37.804371_-122.197951_60.000000_0.000000.jpg\x00http://imagenet.stanford.edu/internal/data/geo/gsv/37_-122/8_2/5_4/4_6/im_37.854733_-122.246610_60.000000_0.000000.jpg\x00http://imagenet.stanford.edu/internal/data/geo/gsv/37_-122/8_2/6_7/9_5/im_37.869797_-122.275066_60.000000_0.000000.jpg\x00http://imagenet.stanford.edu/internal/data/geo/gsv/37_-122/8_2/0_0/5_2/im_37.805270_-122.202789_60.000000_0.000000.jpg\x00http://imagenet.stanford.edu/internal/data/geo/gsv/37_-122/7_1/5_8/9_0/im_37.758955_-122.180593_60.000000_0.000000.jpg\x00http://imagenet.stanford.edu/internal/data/geo/gsv/37_-122/7_2/8_8/4_5/im_37.784586_-122.285026_60.000000_0.000000.jpg\x00http://imagenet.stanford.edu/internal/data/geo/gsv/37_-122/7_1/5_9/0_1/im_37.750412_-122.191122_60.000000_0.000000.jpg\x00http://imagenet.stanford.edu/internal/data/geo/gsv/37_-122/8_2/5_4/3_0/im_37.853159_-122.240350_60.000000_0.000000.jpg\x00http://imagenet.stanford.edu/internal/data/geo/gsv/37_-122/7_2/6_1/4_7/im_37.764576_-122.217586_60.000000_0.000000.jpg\x00http://imagenet.stanford.edu/internal/data/geo/gsv/37_-122/7_1/5_9/0_1/im_37.750187_-122.191406_60.000000_0.000000.jpg\x00http://imagenet.stanford.edu/internal/data/geo/gsv/37_-122/8_1/3_9/8_2/im_37.838320_-122.191976_60.000000_0.000000.jpg\x00http://imagenet.stanford.edu/internal/data/geo/gsv/37_-122/8_2/3_5/5_9/im_37.835397_-122.259131_60.000000_0.000000.jpg\x00http://imagenet.stanford.edu/internal/data/geo/gsv/37_-122/7_2/7_1/0_7/im_37.770197_-122.217870_60.000000_0.000000.jpg\x00http://imagenet.stanford.edu/internal/data/geo/gsv/37_-122/8_2/6_2/7_0/im_37.867548_-122.220147_60.000000_0.000000.jpg\x00http://imagenet.stanford.edu/internal/data/geo/gsv/37_-122/8_2/0_8/3_5/im_37.803472_-122.285026_60.000000_0.000000.jpg\x00http://imagenet.stanford.edu/internal/data/geo/gsv/37_-122/8_2/4_4/3_3/im_37.843042_-122.243480_60.000000_0.000000.jpg\x00http://imagenet.stanford.edu/internal/data/geo/gsv/37_-122/8_1/1_8/7_8/im_37.817411_-122.188845_60.000000_0.000000.jpg\x00http://imagenet.stanford.edu/internal/data/geo/gsv/37_-122/8_2/1_5/0_0/im_37.810891_-122.250025_60.000000_0.000000.jpg\x00http://imagenet.stanford.edu/internal/data/geo/gsv/37_-122/8_2/1_1/5_7/im_37.815837_-122.217017_60.000000_0.000000.jpg\x00http://imagenet.stanford.edu/internal/data/geo/gsv/37_-122/7_2/8_8/1_3/im_37.781438_-122.283887_60.000000_0.000000.jpg\x00http://imagenet.stanford.edu/internal/data/geo/gsv/37_-122/7_1/4_6/9_7/im_37.749512_-122.167504_60.000000_0.000000.jpg\x00http://imagenet.stanford.edu/internal/data/geo/gsv/37_-122/8_2/4_3/8_6/im_37.847988_-122.236366_60.000000_0.000000.jpg\x00http://imagenet.stanford.edu/internal/data/geo/gsv/37_-122/8_2/2_0/1_1/im_37.821233_-122.201366_60.000000_0.000000.jpg\x00http://imagenet.stanford.edu/internal/data/geo/gsv/37_-122/7_1/4_7/9_2/im_37.749287_-122.172626_60.000000_0.000000.jpg\x00http://imagenet.stanford.edu/internal/data/geo/gsv/37_-122/7_2/8_8/3_9/im_37.783911_-122.289009_60.000000_0.000000.jpg\x00http://imagenet.stanford.edu/internal/data/geo/gsv/37_-122/8_2/3_5/0_6/im_37.830901_-122.256001_60.000000_0.000000.jpg\x00http://imagenet.stanford.edu/internal/data/geo/gsv/37_-122/8_2/5_2/0_8/im_37.850911_-122.228399_60.000000_0.000000.jpg\x00http://imagenet.stanford.edu/internal/data/geo/gsv/37_-122/8_2/3_7/3_9/im_37.833149_-122.279619_60.000000_0.000000.jpg\x00http://imagenet.stanford.edu/internal/data/geo/gsv/37_-122/8_2/6_5/3_1/im_37.863052_-122.251448_60.000000_0.000000.jpg\x00http://imagenet.stanford.edu/internal/data/geo/gsv/37_-122/8_2/4_8/2_3/im_37.842142_-122.283318_60.000000_0.000000.jpg\x00http://imagenet.stanford.edu/internal/data/geo/gsv/37_-122/8_2/5_8/7_7/im_37.857656_-122.287587_60.000000_0.000000.jpg\x00http://imagenet.stanford.edu/internal/data/geo/gsv/37_-122/8_2/5_6/9_9/im_37.859454_-122.269375_60.000000_0.000000.jpg\x00http://imagenet.stanford.edu/internal/data/geo/gsv/37_-122/8_2/0_4/7_1/im_37.807519_-122.241204_60.000000_0.000000.jpg\x00http://imagenet.stanford.edu/internal/data/geo/gsv/37_-122/8_2/5_2/6_2/im_37.856532_-122.222708_60.000000_0.000000.jpg\x00http://imagenet.stanford.edu/internal/data/geo/gsv/37_-122/8_2/5_1/7_4/im_37.857881_-122.214171_60.000000_0.000000.jpg\x00http://imagenet.stanford.edu/internal/data/geo/gsv/37_-122/8_2/5_9/6_4/im_37.856532_-122.294700_60.000000_0.000000.jpg\x00http://imagenet.stanford.edu/internal/data/geo/gsv/37_-122/8_1/2_8/5_6/im_37.825505_-122.186284_60.000000_0.000000.jpg\x00http://imagenet.stanford.edu/internal/data/geo/gsv/37_-122/8_2/3_9/6_6/im_37.836746_-122.296408_60.000000_0.000000.jpg\x00http://imagenet.stanford.edu/internal/data/geo/gsv/37_-122/8_2/4_3/1_6/im_37.841693_-122.236082_60.000000_0.000000.jpg\x00http://imagenet.stanford.edu/internal/data/geo/gsv/37_-122/7_2/9_1/1_5/im_37.791331_-122.215025_60.000000_0.000000.jpg\x00http://imagenet.stanford.edu/internal/data/geo/gsv/37_-122/7_1/9_8/7_9/im_37.796951_-122.189130_60.000000_0.000000.jpg\x00http://imagenet.stanford.edu/internal/data/geo/gsv/37_-122/8_1/2_9/1_5/im_37.821908_-122.195390_60.000000_0.000000.jpg\x00http://imagenet.stanford.edu/internal/data/geo/gsv/37_-122/8_2/3_0/8_9/im_37.838770_-122.209903_60.000000_0.000000.jpg\x00http://imagenet.stanford.edu/internal/data/geo/gsv/37_-122/8_2/4_6/7_0/im_37.847089_-122.260838_60.000000_0.000000.jpg\x00http://imagenet.stanford.edu/internal/data/geo/gsv/37_-122/8_2/5_5/3_6/im_37.853384_-122.256285_60.000000_0.000000.jpg\x00http://imagenet.stanford.edu/internal/data/geo/gsv/37_-122/8_2/5_7/0_0/im_37.850461_-122.270798_60.000000_0.000000.jpg\x00http://imagenet.stanford.edu/internal/data/geo/gsv/37_-122/7_1/2_9/7_7/im_37.727704_-122.197098_60.000000_0.000000.jpg\x00http://imagenet.stanford.edu/internal/data/geo/gsv/37_-122/7_1/5_6/2_4/im_37.752885_-122.164658_60.000000_0.000000.jpg\x00http://imagenet.stanford.edu/internal/data/geo/gsv/37_-122/7_1/4_8/9_5/im_37.749512_-122.185431_60.000000_0.000000.jpg\x00http://imagenet.stanford.edu/internal/data/geo/gsv/37_-122/8_1/1_9/9_9/im_37.819884_-122.199943_60.000000_0.000000.jpg\x00http://imagenet.stanford.edu/internal/data/geo/gsv/37_-122/7_1/4_7/6_3/im_37.746589_-122.173764_60.000000_0.000000.jpg\x00http://imagenet.stanford.edu/internal/data/geo/gsv/37_-122/8_2/2_6/1_0/im_37.821008_-122.259985_60.000000_0.000000.jpg\x00http://imagenet.stanford.edu/internal/data/geo/gsv/37_-122/7_1/5_7/8_1/im_37.758505_-122.171488_60.000000_0.000000.jpg\x00http://imagenet.stanford.edu/internal/data/geo/gsv/37_-122/8_2/2_5/1_7/im_37.821233_-122.257708_60.000000_0.000000.jpg\x00http://imagenet.stanford.edu/internal/data/geo/gsv/37_-122/8_2/5_4/7_5/im_37.857881_-122.245472_60.000000_0.000000.jpg\x00http://imagenet.stanford.edu/internal/data/geo/gsv/37_-122/8_2/2_8/7_1/im_37.827079_-122.281326_60.000000_0.000000.jpg\x00http://imagenet.stanford.edu/internal/data/geo/gsv/37_-122/8_1/2_9/9_4/im_37.829102_-122.194537_60.000000_0.000000.jpg\x00http://imagenet.stanford.edu/internal/data/geo/gsv/37_-122/8_1/2_8/1_7/im_37.821908_-122.187138_60.000000_0.000000.jpg\x00http://imagenet.stanford.edu/internal/data/geo/gsv/37_-122/8_2/4_6/1_6/im_37.841918_-122.266245_60.000000_0.000000.jpg\x00http://imagenet.stanford.edu/internal/data/geo/gsv/37_-122/8_2/4_7/3_5/im_37.843491_-122.275635_60.000000_0.000000.jpg\x00http://imagenet.stanford.edu/internal/data/geo/gsv/37_-122/8_2/4_5/6_2/im_37.846864_-122.252586_60.000000_0.000000.jpg\x00http://imagenet.stanford.edu/internal/data/geo/gsv/37_-122/7_1/5_8/8_8/im_37.758505_-122.188276_60.000000_0.000000.jpg\x00http://imagenet.stanford.edu/internal/data/geo/gsv/37_-122/7_1/6_5/7_7/im_37.767724_-122.157829_60.000000_0.000000.jpg\x00http://imagenet.stanford.edu/internal/data/geo/gsv/37_-122/8_2/1_2/8_7/im_37.818086_-122.227545_60.000000_0.000000.jpg\x00http://imagenet.stanford.edu/internal/data/geo/gsv/37_-122/8_2/0_7/0_2/im_37.800774_-122.272790_60.000000_0.000000.jpg\x00http://imagenet.stanford.edu/internal/data/geo/gsv/37_-122/8_2/1_3/1_1/im_37.811341_-122.230960_60.000000_0.000000.jpg\x00http://imagenet.stanford.edu/internal/data/geo/gsv/37_-122/7_2/7_2/1_0/im_37.771096_-122.220716_60.000000_0.000000.jpg\x00http://imagenet.stanford.edu/internal/data/geo/gsv/37_-122/8_2/5_3/8_3/im_37.858555_-122.233236_60.000000_0.000000.jpg\x00http://imagenet.stanford.edu/internal/data/geo/gsv/37_-122/8_2/1_5/2_8/im_37.812240_-122.258277_60.000000_0.000000.jpg\x00http://imagenet.stanford.edu/internal/data/geo/gsv/37_-122/8_2/5_7/8_1/im_37.858555_-122.271651_60.000000_0.000000.jpg\x00http://imagenet.stanford.edu/internal/data/geo/gsv/37_-122/8_2/5_8/8_0/im_37.858105_-122.280188_60.000000_0.000000.jpg\x00http://imagenet.stanford.edu/internal/data/geo/gsv/37_-122/8_2/0_7/0_4/im_37.800774_-122.274497_60.000000_0.000000.jpg\x00http://imagenet.stanford.edu/internal/data/geo/gsv/37_-122/8_2/5_5/4_4/im_37.854508_-122.254863_60.000000_0.000000.jpg\x00http://imagenet.stanford.edu/internal/data/geo/gsv/37_-122/8_2/0_2/0_7/im_37.800099_-122.226976_60.000000_0.000000.jpg\x00http://imagenet.stanford.edu/internal/data/geo/gsv/37_-122/8_2/5_3/9_6/im_37.859454_-122.236082_60.000000_0.000000.jpg\x00http://imagenet.stanford.edu/internal/data/geo/gsv/37_-122/8_2/4_1/2_2/im_37.842142_-122.212464_60.000000_0.000000.jpg\x00http://imagenet.stanford.edu/internal/data/geo/gsv/37_-122/8_2/5_1/4_1/im_37.854733_-122.211041_60.000000_0.000000.jpg\x00http://imagenet.stanford.edu/internal/data/geo/gsv/37_-122/7_2/9_1/3_4/im_37.793804_-122.214456_60.000000_0.000000.jpg\x00http://imagenet.stanford.edu/internal/data/geo/gsv/37_-122/7_2/7_3/4_3/im_37.774693_-122.233521_60.000000_0.000000.jpg\x00http://imagenet.stanford.edu/internal/data/geo/gsv/37_-122/8_2/5_2/7_2/im_37.857431_-122.222423_60.000000_0.000000.jpg\x00http://imagenet.stanford.edu/internal/data/geo/gsv/37_-122/8_2/4_9/6_3/im_37.845965_-122.293847_60.000000_0.000000.jpg\x00http://imagenet.stanford.edu/internal/data/geo/gsv/37_-122/7_2/8_2/8_2/im_37.788183_-122.222139_60.000000_0.000000.jpg\x00http://imagenet.stanford.edu/internal/data/geo/gsv/37_-122/8_2/5_8/9_7/im_37.859679_-122.287302_60.000000_0.000000.jpg\x00http://imagenet.stanford.edu/internal/data/geo/gsv/37_-122/7_2/9_0/5_8/im_37.795378_-122.208480_60.000000_0.000000.jpg\x00http://imagenet.stanford.edu/internal/data/geo/gsv/37_-122/7_2/8_0/8_2/im_37.788183_-122.202220_60.000000_0.000000.jpg\x00http://imagenet.stanford.edu/internal/data/geo/gsv/37_-122/8_2/2_4/0_4/im_37.820109_-122.244334_60.000000_0.000000.jpg\x00http://imagenet.stanford.edu/internal/data/geo/gsv/37_-122/7_2/8_2/5_5/im_37.785935_-122.225553_60.000000_0.000000.jpg\x00http://imagenet.stanford.edu/internal/data/geo/gsv/37_-122/7_1/8_8/8_5/im_37.788408_-122.185715_60.000000_0.000000.jpg\x00http://imagenet.stanford.edu/internal/data/geo/gsv/37_-122/8_2/0_4/3_3/im_37.803022_-122.243765_60.000000_0.000000.jpg\x00http://imagenet.stanford.edu/internal/data/geo/gsv/37_-122/8_2/2_7/5_7/im_37.825280_-122.277627_60.000000_0.000000.jpg\x00http://imagenet.stanford.edu/internal/data/geo/gsv/37_-122/8_2/3_0/7_3/im_37.836971_-122.203642_60.000000_0.000000.jpg\x00http://imagenet.stanford.edu/internal/data/geo/gsv/37_-122/7_2/9_7/8_5/im_37.798750_-122.275920_60.000000_0.000000.jpg\x00http://imagenet.stanford.edu/internal/data/geo/gsv/37_-122/7_1/9_8/1_1/im_37.791331_-122.181447_60.000000_0.000000.jpg\x00http://imagenet.stanford.edu/internal/data/geo/gsv/37_-122/8_2/6_8/6_6/im_37.866874_-122.286164_60.000000_0.000000.jpg\x00http://imagenet.stanford.edu/internal/data/geo/gsv/37_-122/8_2/4_5/3_3/im_37.843716_-122.253155_60.000000_0.000000.jpg\x00http://imagenet.stanford.edu/internal/data/geo/gsv/37_-122/7_2/7_2/2_8/im_37.772445_-122.228114_60.000000_0.000000.jpg\x00http://imagenet.stanford.edu/internal/data/geo/gsv/37_-122/7_1/3_8/1_9/im_37.731301_-122.189699_60.000000_0.000000.jpg\x00http://imagenet.stanford.edu/internal/data/geo/gsv/37_-122/8_2/2_6/8_4/im_37.828877_-122.264537_60.000000_0.000000.jpg\x00http://imagenet.stanford.edu/internal/data/geo/gsv/37_-122/7_2/9_8/8_9/im_37.798750_-122.289009_60.000000_0.000000.jpg\x00http://imagenet.stanford.edu/internal/data/geo/gsv/37_-122/8_2/3_5/2_8/im_37.832025_-122.258277_60.000000_0.000000.jpg\x00http://imagenet.stanford.edu/internal/data/geo/gsv/37_-122/8_2/3_6/5_5/im_37.835173_-122.265107_60.000000_0.000000.jpg\x00http://imagenet.stanford.edu/internal/data/geo/gsv/37_-122/8_2/0_3/1_0/im_37.801673_-122.230675_60.000000_0.000000.jpg\x00http://imagenet.stanford.edu/internal/data/geo/gsv/37_-122/8_2/5_3/9_5/im_37.859229_-122.235797_60.000000_0.000000.jpg\x00http://imagenet.stanford.edu/internal/data/geo/gsv/37_-122/8_2/2_8/3_2/im_37.823931_-122.282180_60.000000_0.000000.jpg\x00http://imagenet.stanford.edu/internal/data/geo/gsv/37_-122/8_2/5_7/4_4/im_37.854733_-122.274782_60.000000_0.000000.jpg\x00http://imagenet.stanford.edu/internal/data/geo/gsv/37_-122/8_2/4_5/5_2/im_37.845740_-122.252017_60.000000_0.000000.jpg\x00http://imagenet.stanford.edu/internal/data/geo/gsv/37_-122/8_2/5_6/4_0/im_37.854283_-122.260838_60.000000_0.000000.jpg\x00http://imagenet.stanford.edu/internal/data/geo/gsv/37_-122/8_2/3_5/6_1/im_37.836522_-122.251163_60.000000_0.000000.jpg\x00http://imagenet.stanford.edu/internal/data/geo/gsv/37_-122/7_2/7_9/9_1/im_37.779415_-122.291286_60.000000_0.000000.jpg\x00http://imagenet.stanford.edu/internal/data/geo/gsv/37_-122/8_2/4_6/7_1/im_37.847089_-122.261692_60.000000_0.000000.jpg\x00http://imagenet.stanford.edu/internal/data/geo/gsv/37_-122/7_2/9_0/1_5/im_37.791556_-122.205065_60.000000_0.000000.jpg\x00http://imagenet.stanford.edu/internal/data/geo/gsv/37_-122/8_2/4_0/9_3/im_37.849787_-122.203358_60.000000_0.000000.jpg\x00http://imagenet.stanford.edu/internal/data/geo/gsv/37_-122/7_2/9_8/9_1/im_37.798975_-122.281611_60.000000_0.000000.jpg\x00http://imagenet.stanford.edu/internal/data/geo/gsv/37_-122/8_1/3_9/2_0/im_37.832700_-122.190268_60.000000_0.000000.jpg\x00http://imagenet.stanford.edu/internal/data/geo/gsv/37_-122/7_1/2_7/4_4/im_37.724331_-122.174902_60.000000_0.000000.jpg\x00http://imagenet.stanford.edu/internal/data/geo/gsv/37_-122/8_2/3_7/0_2/im_37.830451_-122.272790_60.000000_0.000000.jpg\x00http://imagenet.stanford.edu/internal/data/geo/gsv/37_-122/8_2/5_3/9_7/im_37.859005_-122.237505_60.000000_0.000000.jpg\x00http://imagenet.stanford.edu/internal/data/geo/gsv/37_-122/7_2/9_6/6_4/im_37.796727_-122.264822_60.000000_0.000000.jpg\x00http://imagenet.stanford.edu/internal/data/geo/gsv/37_-122/7_2/6_1/4_3/im_37.764801_-122.213886_60.000000_0.000000.jpg\x00http://imagenet.stanford.edu/internal/data/geo/gsv/37_-122/8_2/4_0/8_1/im_37.848662_-122.201935_60.000000_0.000000.jpg\x00http://imagenet.stanford.edu/internal/data/geo/gsv/37_-122/8_2/7_7/7_8/im_37.877666_-122.278481_60.000000_0.000000.jpg\x00http://imagenet.stanford.edu/internal/data/geo/gsv/37_-122/7_1/2_7/0_8/im_37.720509_-122.178601_60.000000_0.000000.jpg\x00'
p13
tp14
b.